(dp1
S'blame'
p2
(dp3
S'last_used'
p4
F0
sS'disabled_on'
p5
(lp6
sS'limit'
p7
F5
ssS'dnd'
p8
(dp9
g4
F0
sg5
(lp10
sg7
F5
ssS'niven'
p11
(dp12
g4
F0
sg5
(lp13
sg7
F5
ssS'treat'
p14
(dp15
g4
F0
sg5
(lp16
sg7
F5
ssS'vend'
p17
(dp18
g4
F0
sg5
(lp19
sg7
F5
ssS'blend'
p20
(dp21
g4
F0
sg5
(lp22
sg7
F5
ssS'emote'
p23
(dp24
g4
F0
sg5
(lp25
sg7
F5
ssS'abuse'
p26
(dp27
g4
F0
sg5
(lp28
sg7
F5
ss.
