(dp1
I1
S"Cannot base characters off the Who's drummer Keith Moon."
p2
sI2
S'A one man band is not an appropriate bard instrument.'
p3
sI3
S'There is no Gnomish god of heavy artillery.'
p4
sI4
S"My 7th Sea character Boudreaux is not 'Southern' Montaigne."
p5
sI5
S'Not allowed to blow all my skill points on 1pt professional skills.'
p6
sI6
S'Synchronized panicking is not a proper battle plan.'
p7
sI7
S'Not allowed to use psychic powers to do the dishes.'
p8
sI8
S'How to serve Dragons is not a cookbook.'
p9
sI9
S"My monk's lips must be in sync."
p10
sI10
S"Just because my character and I can speak German, doesn't mean the GM can."
p11
sI11
S'Not allowed to berserk for the hell of it, especially during royal masquerades.'
p12
sI12
S"Must learn at least one offensive or defensive spell if I'm the sorcerer."
p13
sI13
S'Must not murder canon NPCs in their sleep, no matter how cliche they are.'
p14
sI14
S'Ogres are not kosher.'
p15
sI15
S'Plan B is not automatically twice as much gunpowder as Plan A.'
p16
sI16
S'I will not beat Tomb of Horrors in less than 10 minutes from memory.'
p17
sI17
S'Collateral Damage Man is not an appropriate name for a super hero.'
p18
sI18
S'When surrendering I am to hand the sword over HILT first.'
p19
sI19
S'Drow are not good eating.'
p20
sI20
S'Polka is not appropriate marching music.'
p21
sI21
S'No longer allowed to recreate the Death Star Trench Run out of genre.'
p22
sI22
S'There is no such thing as a Gnomish Pygmy War Rhino.'
p23
sI23
S'Any character who has a sensitivity training center named after him will be taken away.'
p24
sI24
S'Even if the rules allow it, I am not allowed to summon 50,000 Blue Whales.'
p25
sI25
S'The green elf does not need food badly.'
p26
sI26
S"Valley speak has no place in a fantasy setting. Especially if you're the paladin."
p27
sI27
S"I am not to shoot every corpse in the head to make sure they aren't a zombie in Twilight 2000."
p28
sI28
S"The Goddess' of Marriage chosen weapon is not the whip."
p29
sI29
S'I cannot have any gun that requires me to continue the damage code on back.'
p30
sI30
S'I am not to kill off all the vampires in the LARP, even if they are terminally stupid.'
p31
sI31
S'The backup trap handler is not whoever has the most HP at the time.'
p32
sI32
S'I cannot buy any animal in groups of 100 or over.'
p33
sI33
S"There is no such skill as 'improvised cooking'"
p34
sI34
S'I am not allowed to base any Droid off any character played by Joe Pesci.'
p35
sI35
S'I am not allowed to convince the entire party to play R2 units.'
p36
sI36
S'I am not allowed to convince the entire party to sit on the same side of the table.'
p37
sI37
S'They do not make black market illegal cyberweapons for rodents.'
p38
sI38
S'When investigating evil cultists not allowed to just torch the decrepit mansion from the outside.'
p39
sI39
S"Gnomes do not have the racial ability 'can lick their eyebrows'"
p40
sI40
S'Gnomes do not have the racial ability to hold their breath for 10 minutes.'
p41
sI41
S"Gnomes do not have the racial ability 'impromptu kickstand'"
p42
sI42
S'Having a big nose adds nothing to my seduction check.'
p43
sI43
S'No longer allowed to set nazi propaganda music to a snappy disco beat.'
p44
sI44
S'Not allowed to spend all 100 character points on 100 1pt skills.'
p45
sI45
S'My character names are not allowed to be double entendres.'
p46
sI46
S'Sliver rhymes with silver because the computer frelling says so.'
p47
sI47
S'They do not make Nair in wookie sizes.'
p48
sI48
S'The elf is restricted to decaf for the rest of the adventure.'
p49
sI49
S'Not allowed to blow up the Death Star before that snotty farm kid gets his shot.'
p50
sI50
S"Not allowed to use thermodynamic science to asphyxiate the orcs' cave instead of exploring it first."
p51
sI51
S'No longer allowed to use the time machine for booty calls.'
p52
sI52
S'My bard does not know how to play Inna Godda Davida on marachas.'
p53
sI53
S'Not allowed to start a drow character weighing more than a quarter ton.'
p54
sI54
S'Cannot pimp out other party members.'
p55
sI55
S'Before facing the dragon, not allowed to glaze the elf.'
p56
sI56
S'No matter how well I roll, a squirrel cannot carry a horse and rider at full sprint.'
p57
sI57
S'In the middle of a black op I cannot ask a guard to validate parking.'
p58
sI58
S'Expended ammunition is not a business expense.'
p59
sI59
S"Not allowed to pose the Netrunner in embarrassing positions when he's on a run."
p60
sI60
S'Not allowed to short sheet the bedroll of impotent deities.'
p61
sI61
S'Can only taunt the ranger about his lack of swimming after my USCG E8 saves him.'
p62
sI62
S'I am not allowed to do anything I saw Han Solo do once.'
p63
sI63
S'No, I cannot buy 10,000 marbles even if I say please.'
p64
sI64
S'My paladin\'s battle cry is not "Good for the Good God"'
p65
sI65
S'There is no Summon Bimbo spell.'
p66
sI66
S'Not allowed to start a character that speaks every language except ones the party speaks.'
p67
sI67
S'There is no Kung Fu manuever "McGuire Swings For Bleachers"'
p68
sI68
S'Bring him back intact includes redundant organs.'
p69
sI69
S'There is more to wizardry than magic missile. Even if I can do 200 damage automatic with no save.'
p70
sI70
S'Not allowed to cook up nerve gas in the sink even if the target number is 5.'
p71
sI71
S"There is no 'annoy' setting on a phasor"
p72
sI72
S"Not allowed to start a character who is over 100 years old unless he's an elf or dwarf. Humans are right out."
p73
sI73
S'Not allowed to name my cudgel Ceremonial Whoopass Stick.'
p74
sI74
S'My thief\'s battle cry is not "Run And Live"'
p75
sI75
S'Nor is it "You take care of the orcs, I take care of the traps"'
p76
sI76
S'I am not allowed any artistic license while translating.'
p77
sI77
S'I did not get my super powers from James T. Kirk.'
p78
sI78
S'Not allowed to commission a pistol that costs more than a sedan.'
p79
sI79
S'I am not liquid metal.'
p80
sI80
S'When accepting a challenge for a duel, I must allow the other guy time to find a pistol.'
p81
sI81
S'A picture of my ex-wife is not an acceptable backup weapon.'
p82
sI82
S'Victory laps after killing the dragon with my 1d2 bow is considered in poor taste.'
p83
sI83
S'My gnome does not like big butts and he cannot lie.'
p84
sI84
S'Not allowed to talk my fellow inquisitors into buying a 220lb pull crossbow.'
p85
sI85
S'Not allowed to talk my fellow inquisitors into buying an industrial strength flamethrower.'
p86
sI86
S'Not allowed to make a superhero with a 99% chance of dodging even after the -10 penalty for a successful called shot.'
p87
sI87
S'There is no such thing as a dwarven katana.'
p88
sI88
S'My bard does not get a bonus to perform if she is obviously not wearing anything under her tabard.'
p89
sI89
S"The elf's name is not Legolam."
p90
sI90
S'My swashbuckling fop cannot take the flaw Dark Secret: Not Gay'
p91
sI91
S'A wet towel does not constitute an improvised weapon.'
p92
sI92
S'The name of the weapon shop is not "Bloodbath and Beyond"'
p93
sI93
S'I am to remind my DM that he must never, ever give my paladin a dire boar for a mount again.'
p94
sI94
S'I cannot base my ancient kung fu master on neither Gene Simmons or Bluto Blutarski.'
p95
sI95
S'I must not put the Thunder God on the spot again.'
p96
sI96
S'No making up polearms.'
p97
sI97
S"My one wish cannot be 'I wish everything on this piece of paper was true'"
p98
sI98
S'There is no such thing as Speed Polka.'
p99
sI99
S'Not allowed to see if Jedi can parry a shotgun blast with their lightsaber.'
p100
sI100
S"When any character from a d20 sourcebook is allowed, that doesn't include System Lords."
p101
sI101
S'I am not allowed to pave ANYTHING.'
p102
sI102
S"I am not authorized to start any civil engineering project on the taxpayer's dime."
p103
sI103
S'There is no such thing as a Club 3 of Cup Checks'
p104
sI104
S'Nor is there a 1 Longsword, 5 against party members.'
p105
sI105
S'I am not allowed to polymorph anyone into Abe Vigoda.'
p106
sI106
S'I do not have weapon proficiency in cat.'
p107
sI107
S'There is no such game as Wereshark the Buffet.'
p108
sI108
S'No, I do not get XP for every single crewman on that Star Destroyer.'
p109
sI109
S'Not allowed to kill a vampire with any part from a DC-10 larger than my car.'
p110
sI110
S'Not allowed to serenade the party even if my character has an internal tape deck.'
p111
sI111
S'I did not pick the garrote skill last week from my grandmother.'
p112
sI112
S"If the gun can't fit through the x-ray machine, it doesn't go on the plane."
p113
sI113
S'My Droid is not allowed to paraphrase any Jack Nicholson soliloquy.'
p114
sI114
S'The Demilich only falls for getting stuffed in the bag of holding once.'
p115
sI115
S'My musical instrument does not double as a personal flotation device.'
p116
sI116
S'Not allowed to take a coffee break during the final super villain showdown.'
p117
sI117
S'I am restricted to memorizing Floating Disc only once per day.'
p118
sI118
S'I will pick a more traditional paladin weapon instead of a sledgehammer.'
p119
sI119
S"My character's names cannot be anagrams of playboy playmates."
p120
sI120
S'Not allowed to kill another party member with a boomerang again.'
p121
sI121
S'I am not a contractor for Dragon Cave Cleaning Services Inc.'
p122
sI122
S"The paladin's alignment is not Lawful Anal."
p123
sI123
S'Not allowed to forget to mention traps when the powergamer has point.'
p124
sI124
S'I cannot insert the words "Kill Phil, Sorry Phil" into any list of instructions.'
p125
sI125
S'Lingerie can only snap coincidentally so many times per day.'
p126
sI126
S'Dwarves do not count as burrowing animals.'
p127
sI127
S'Not allowed to download AOL 6.0 on the Arasaka mainframe.'
p128
sI128
S'Polka Gnomes exist only in my mind.'
p129
sI129
S'Not allowed to name my ship The Antidisestablishmentarianism.'
p130
sI130
S'I am not authorized to form the head.'
p131
sI131
S'Not allowed to bet how many times the lich bounces.'
p132
sI132
S'There is no such feat called "Death Blossom"'
p133
sI133
S"My acrobat cannot balance on the warlord's head for more than one round."
p134
sI134
S'The King\'s Guards official name is not "The Royal Order of the Red Shirt"'
p135
sI135
S'I cannot demand payment in electrum, backrubs or bubblewrap.'
p136
sI136
S'I cannot start the 7th Sea campaign with 3 confirmed Drachen kills.'
p137
sI137
S'I do not have a scorching case of lycanthropy.'
p138
sI138
S"If the mere thought of it costs the others sanity, I'm forbidden from doing it."
p139
sI139
S"My bard is required to take levels in the perform skill and cannot 'just play by ear'"
p140
sI140
S'The Dutch language does not exist in the Forgotten Realms.'
p141
sI141
S'My maid does not know kung fu.'
p142
sI142
S'Not allowed to give a 4 year old a sugar rush just to jack up the CR later.'
p143
sI143
S'Not allowed to by a holy symbol for every god just in case one of them is right.'
p144
sI144
S'There is no such thing as pleather armor.'
p145
sI145
S'I cannot go back in time to cut in line at the Declaration of Independence so everybody now is asked for their Terrence E. Woczinski when signing documents.'
p146
sI146
S'Not allowed to play an Australian in any game set before 1600.'
p147
sI147
S'Hobbits are not allowed to have Norse ancestry.'
p148
sI148
S"There is no Gnomish Deathgrip, and even if there was, it wouldn't involve tongs."
p149
sI149
S'Looting the unguarded baggage train is not considered a glorious victory.'
p150
sI150
S'Not allowed to create recreational drugs in suppository format.'
p151
sI151
S'Halflings do not have a racial proficiency with the flamethrower.'
p152
sI152
S'When the guy is at -9 HP is not the best time for my cleric to convert him.'
p153
sI153
S'I will not propose to every noblewoman at the royal ball until I crit my charisma check.'
p154
sI154
S"I am not allowed to rub the monk's head for luck."
p155
sI155
S'I am not allowed to rub any part of the elf chick for any reason.'
p156
sI156
S'When one person forgets to buy rations eating the half-elf is not our first option.'
p157
sI157
S"Any capital scale weapon is not 'my little friend'."
p158
sI158
S'I will not declare myself a god just so I can grant myself spells.'
p159
sI159
S'Airlocks do not double as trash disposals.'
p160
sI160
S'I will not load any gatling weapon with nothing but paint rounds.'
p161
sI161
S'I will not nail every single female party member except for the elf chick played by that creepy guy.'
p162
sI162
S"What ever monster we just killed is not to be tonight's dinner."
p163
sI163
S'Not allowed to try and make a dire version of any dog of the toy breeds.'
p164
sI164
S"I am not to tattle to the halfling assassin's mom about his career choice."
p165
sI165
S"I am forbidden from replacing anything with folger's crystals to see if they notice."
p166
sI166
S'Not allowed to bribe the enemy commander into withdrawing with a stolen Elvis LP collection.'
p167
sI167
S'I was not recruited by Star League for any reason.'
p168
sI168
S'I was also not recruited by 12 dwarves and a wizard to rob a dragon.'
p169
sI169
S'I am neither the pagan god nor goddess of fertility.'
p170
sI170
S'I cannot name my character Xagyg or any anagram thereof.'
p171
sI171
S'My character\'s dying words are not allowed to be "Hastur, Hastur, Hastur"'
p172
sI172
S'At no point can I justify spending force points on a seduction check.'
p173
sI173
S"I am not allowed to recreate Veers' March of the AT-ATs on Zhentil Keep."
p174
sI174
S"There is no use of Shatner's spoken word album that doesn't require a humanity check."
p175
sI175
S'I am not directly descended from either Huey Lewis or any member of the News.'
p176
sI176
S'I cannot make called shots to the plectrum, anvil, stirrup, hammer or Isle of Langerhans.'
p177
sI177
S'Stinking cloud is a privilege, not a right.'
p178
sI178
S'There are no profanities in Celestial.'
p179
sI179
S'Chummer means he is my friend, not that sharks find him tasty.'
p180
sI180
S'I have neither the touch nor the power.'
p181
sI181
S'I cannot quote Shakespeare in Crinos.'
p182
sI182
S'No figuring out the plot and killing the actual villain five minutes into the adventure.'
p183
sI183
S'There are no rules for cooking corn dogs in any d20 supplement.'
p184
sI184
S'A starting character has no need for 100gp worth of hemp rope.'
p185
sI185
S'My bard does not need roadies for a dungeon crawl.'
p186
sI186
S'No cutting line to be a god.'
p187
sI187
S'I cannot gain more than three drama die per session for making the GM pee.'
p188
sI188
S'I cannot play a elf with a scottish accent, nor a cajun dwarf.'
p189
sI189
S'Tourretes is not a flaw, it is a reason to kill the character at creation.'
p190
sI190
S'Duel wielding small animals is strictly forbidden.'
p191
sI191
S'My character is not related in anyway to Boba Fett. This goes double for Star Wars characters.'
p192
sI192
S'If the gun is best fired using the artillery skill, my character is not allowed to have it.'
p193
sI193
S'Not allowed to kill vampires with seismic charges.'
p194
sI194
S'When the other guy picks swords for the choice of weapons, that does not leave me pistols.'
p195
sI195
S'I cannot use a silent feat enabled power word stun and blame it on the dog.'
p196
sI196
S"I cannot name a character anything that I can't say politely in another country."
p197
sI197
S'My epic level character cannot take on the minor goblin menace to his country just to stay sharp.'
p198
sI198
S'Not allowed to steal my own soul.'
p199
sI199
S"My third wish cannot be 'I wish you wouldn't grant this wish'"
p200
sI200
S'I cannot name my character cliche canon characters from other systems.'
p201
sI201
S'My thief is prohibited from speaking solely in Cant.'
p202
sI202
S'Character descriptions cannot contain two of the following words: Slavic, Tonedeaf, Karaoke, Musician.'
p203
sI203
S"My superhero's strength is not classified as snazzy, neato or bodacious."
p204
sI204
S'I am not too sexy for the elf, too sexy for the elf, so sexy myself.'
p205
sI205
S'My 3rd ed. Red Wizard is not allowed to start a business named Thay Co.'
p206
sI206
S"I cannot forge a 1 sword of Brad's Min/Maxed Paladin/Monk Slaying."
p207
sI207
S'The following weapons are not legal choices in a duel: Steamroller, Nerve Gas, Landmine, Midget.'
p208
sI208
S'I cannot whine about the crappy selection of magical bec de corbins.'
p209
sI209
S"My Paladin's heraldry is not a smiley face."
p210
sI210
S"My Antipaladin's heraldry is not Mr. Yuk."
p211
sI211
S'If at any point if my dwarf takes on the mannerisms of Macho Man Randy Savage, he dies.'
p212
sI212
S'If the party always starts the adventure in a tavern, I cannot opt to start in a brothel.'
p213
sI213
S'I am not the patron saint of common sense.'
p214
sI214
S'There is no prestige class Drizzt Slayer.'
p215
sI215
S'They do not make heavy weapons in pump action.'
p216
sI216
S'There is an upper limit to the number of Bozo boostergangers I can get in a Volkswagon.'
p217
sI217
S"If the weapon is capable of staking vampires hiding behind engine blocks, I can't have it."
p218
sI218
S'No matter my alignment, organizing halfling pit fights is a violation.'
p219
sI219
S'In formal introductions to royalty, I must not introduce my companions as just "The Other Guys".'
p220
sI220
S'I am not the master of the low blow or the gang up.'
p221
sI221
S"If I get that Yugo up to 120mph again, that's gonna get some paradox."
p222
sI222
S'Druids are not against my religion.'
p223
sI223
S"I cannot convince the Solo he has a cortex bomb when he really doesn't."
p224
sI224
S'I cannot insinuate elf chicks are all easy, even though you never hear about a half gnome do you?'
p225
sI225
S'I am forbidden from monologuing.'
p226
sI226
S'Troll bubblegum...bad idea.'
p227
sI227
S'My last wish cannot be "I wish we were playing another game."'
p228
sI228
S'I cannot use my time machine to hire Hitler a hooker in 1920, thus avoiding WW2.'
p229
sI229
S'Not allowed to spontaneously check if the elf can take a punch.'
p230
sI230
S'There is no such thing as monofilament tooth floss.'
p231
sI231
S'I am not allowed to do anything that would make a Sith Lord cry.'
p232
sI232
S'It is not possible to recreate any scene from Dr. Who in Crinos.'
p233
sI233
S'If I am the medtech it is generally assumed I am going to have skill in medicine.'
p234
sI234
S'My character does not get d34 HP a level.'
p235
sI235
S'My Samedi is required to have dots in obfuscate. Plural, as in more than one, two more than none.'
p236
sI236
S"My character has no need for 24,000 cartons of cigarettes, especially in his neighbor's garage."
p237
sI237
S'Not allowed to use more than 3 words per game that the GM has to look up the definition.'
p238
sI238
S'My bard cannot play or has ever heard of the theremin, didgeridoo or glass armonica.'
p239
sI239
S'My rockerboy cannot play or has ever heard of the theremin, didgeridoo or glass armonica.'
p240
sI240
S'Any character with more than three skills specializing in chainsaw is vetoed.'
p241
sI241
S'Cannot use the jedi mind trick to get out of a speeding ticket.'
p242
sI242
S'Not allowed to give quicklings Mountain Dew.'
p243
sI243
S'Cannot cast haste on the king during a long winded speech to get him to hurry the hell up.'
p244
sI244
S'Not allowed to taunt the rest of the party in 8 different languages because they forgot to take any.'
p245
sI245
S'Not allowed to attend any opera whose name the GM confuses with a strip joint.'
p246
sI246
S"I cannot keep selling that creepy guy's always naked elf chick to nomads every chance I get."
p247
sI247
S'If the king rewards me with a forest, I am to assume he intends for me to keep it a forest.'
p248
sI248
S'There is no Halfling god of groin shots.'
p249
sI249
S'If a black op requires me to impersonate an employee, I cannot bill the target for overtime.'
p250
sI250
S'Superfluous Man is not a viable superhero concept.'
p251
sI251
S'I am not the Boogie-Woogie Bugle Boy of Gundam Wing Z.'
p252
sI252
S'I can not order the Druid to transform and roll out.'
p253
sI253
S'If the other party members forget to take any food prep skills, not allowed to let them starve to death.'
p254
sI254
S'I cannot blow 5 paradox in: A police line up, the candy aisle of Krogers, the Miss America Pageant.'
p255
sI255
S'I cannot create a superhero that can palm the moon.'
p256
sI256
S'The following cleric domains do not exist: Wet T-Shirts, Atheism, Keggers'
p257
sI257
S'I cannot wish nobody else gets wishes.'
p258
sI258
S'There is no such thing as Skyclad Armor 5'
p259
sI259
S"My Highlander's name cannot be McHammer."
p260
sI260
S'Gnomes do not have a racial bonus in bobsled.'
p261
sI261
S'The Barbarian\'s name does not translate into "Screams like little sissy girl" in my language.'
p262
sI262
S'When the GM forces the plot, I cannot make choo-choo noises.'
p263
sI263
S'Not allowed to attempt to kill the Hutt by pouring salt on him.'
p264
sI264
S'I cannot use the time machine to go to Ancient Greece where all the women were leather clad, oiled down with big bosoms.'
p265
sI265
S'It assumed my mechwarrior knows at least what one of the buttons in his cockpit does.'
p266
sI266
S"At the end of a black-ops, I cannot crank call C-SWAT on the target's phone."
p267
sI267
S'I cannot yell "FREEBIRD" every time the bard makes a perform roll.'
p268
sI268
S'Mr. Welch is not allowed to speak in 3rd person.'
p269
sI269
S'My character cannot hear the soundtrack.'
p270
sI270
S'I cannot derail the adventure for a two hour in character discussion on the qualities of rope.'
p271
sI271
S'Tracheotomies are best left to characters with skills in medicine.'
p272
sI272
S'No skill allows specializing in defenestration.'
p273
sI273
S"No matter how smart I make my animal companion, he still can't take the tax accountant skill."
p274
sI274
S'I cannot commune with the Gods during peak hours.'
p275
sI275
S'I must remember at dinner time Rock is not a dwarven delicacy.'
p276
sI276
S'I must remember at dinner time Log is not an elven delicacy.'
p277
sI277
S'My half-ogre cannot surprise the halflings with spontaneous games of dodgeball.'
p278
sI278
S'Anything the DM has to ponder the full impact of for more than a minute is forbidden.'
p279
sI279
S'I cannot base any elf off of any British Prime Minister.'
p280
sI280
S'Thermonuclear hand grenades do not exist in any genre except Paranoia.'
p281
sI281
S'I cannot get emotionally attached to any generic nondescript unnamed NPC.'
p282
sI282
S"Even if laughter is the best medicine, it still doesn't restore any of my HP."
p283
sI283
S'I have been assured with total certainty Ralph is not a Japanese name.'
p284
sI284
S"When the CO asks for volunteers, I can't help others make a decision."
p285
sI285
S"I am not from Margaritaville, and even if I was, that doesn't excuse the hawaiian shirt and lawn chair during the dress inspection."
p286
sI286
S'No character of mine can start with 400 previous convictions for any misdemeanor.'
p287
sI287
S'When asked for advice before a fight "Don\'t wet yourself in public" is not what they were looking for.'
p288
sI288
S'I cannot name my character after another PC already in this game.'
p289
sI289
S'My character does not have the flaw Addiction: Helium.'
p290
sI290
S"I cannot figure that the dungeon we're in is the Pac-Man maze and point it out to the rest of the party."
p291
sI291
S'I cannot form a huddle to discuss strategy before facing the final monster in the dungeon.'
p292
sI292
S"I cannot take all the monsters I've killed to the taxidermist after the adventure."
p293
sI293
S'Clowns shoes have no place in a dungeon crawl.'
p294
sI294
S'My dwarf is not claustrophobic, likewise, my elf is not agoraphobic.'
p295
sI295
S'When my enemy blinks does not give me an attack of opportunity.'
p296
sI296
S'I cannot make called shots with a crew served weapon.'
p297
sI297
S'I cannot hand out artillery flares to the bad guys on New Years and tell them they are roman candles.'
p298
sI298
S'Sprechen Sie Bang-Bang? is not real German.'
p299
sI299
S'I do not get any XP for anyone I kill by stampeding sheep.'
p300
sI300
S'I cannot give the rebel operatives the codenames Luke, Han, Chewie or Yoda.'
p301
sI301
S'"Well Hung" is not a physical, social or mental trait.'
p302
sI302
S'A gimp suit does not count as leather armor.'
p303
sI303
S"I cannot gradually describe my character more and more until it's obvious I'm describing Burt Reynolds."
p304
sI304
S'My life long nemesis is not allowed to be the unsuspecting cleric sitting across the table from me.'
p305
sI305
S'Anything my character does that ends up as errata I am retroactively prohibited from doing.'
p306
sI306
S'Chaotic Evil dieties do not have hymnals.'
p307
sI307
S"Even if he can use them from the start, my barbarian can't specialize in fencing weapons."
p308
sI308
S'A Mao suit is not proper garb for my shugenja.'
p309
sI309
S'I cannot cast invisibility on random household items like car keys, tea sets and bear traps.'
p310
sI310
S'I cannot spend all my points on just followers.'
p311
sI311
S'Even if the rules allow it, I cannot start the game as pope.'
p312
sI312
S'I am not the son, father, husband, exroommate, former professor or retired garbageman of the villain.'
p313
sI313
S'My British Superspy does not get a reroll on his seduction check if his shirt gets ripped off.'
p314
sI314
S"Under 'Religion' I cannot put 'Xenu'."
p315
sI315
S'My gnome cannot save point on the ride skill simply by asking for piggyback rides everywhere.'
p316
sI316
S'My character is not allowed to commit suicide five minutes into the campaign.'
p317
sI317
S"My battlecry is not 'Now young Skywalker you will die'."
p318
sI318
S'Vampiric cows are not the fast food innovation of the future.'
p319
sI319
S"My character does not have the flaw: Dark Secret- I'm Kilroy."
p320
sI320
S'The Sultan does not want a treasure bath.'
p321
sI321
S"The monk's official title is Brother of the Lotus Path. Not the Slap Happy Jappy."
p322
sI322
S'My bard knows more songs than just "I Saw Your Mommy"'
p323
sI323
S'I cannot start the game with a highly contagious deadly disease.'
p324
sI324
S'I cannot start the game pregnant.'
p325
sI325
S'Even if he was a paragon of humanity in his alternate dimension, Good Hitler is not an appropriate superhero concept.'
p326
sI326
S'Cannot accumulate 200 points of flaws for Hackmaster.'
p327
sI327
S'I am not allowed to decide which one of us is the Chosen One.'
p328
sI328
S"I cannot keep my phaser on disintegrate just because it's the coolest setting."
p329
sI329
S'Not allowed to spoil the plot by simply removing the hinges on the door.'
p330
sI330
S'The Halfling Paladin does not represent the Lollipop Guild.'
p331
sI331
S'I cannot invoke Consecrate Weapon on a Man of War'
p332
sI332
S'I cannot spend character points to buy imaginary friends.'
p333
sI333
S'I cannot fistinate anybody, whatever the hell that means.'
p334
sI334
S'Pinball is not a specialization for wizards.'
p335
sI335
S"When installing cyberware, can't install the Clapper as a built in feature."
p336
sI336
S'Cannot start a Cthuhlu character with a pre-existing hatred of books, altars and cutlery.'
p337
sI337
S'Even if the rules allow it, I cannot control 20,000 pigeons and use them as flying piranha.'
p338
sI338
S'Any character named El Robotico Jiraffe de Fuego is begging to be vetoed.'
p339
sI339
S'Can\'t avoid going on an epic quest with the excuse "Can\'t find a sitter"'
p340
sI340
S'I cannot start the game married to another PC without their consent.'
p341
sI341
S'Not allowed to declare myself a free agent and take offers from other adventuring parties.'
p342
sI342
S'After the first adventure I cannot write a tell all book about the party.'
p343
sI343
S'I must remember royalty do not share the same love of parody as my bard.'
p344
sI344
S"No matter how much I make my IQ roll by, I can't make the other guy's head explode."
p345
sI345
S"I don't have weapon proficiency in elf, either."
p346
sI346
S"I most certainly don't have weapon proficiency in a Phased-plasma rifle in the forty watt range."
p347
sI347
S"If I'm not the decker, I can't do anything I saw in Tron once."
p348
sI348
S"The rest of the party appreciates it if I don't start the game in Cyberpsychosis."
p349
sI349
S'Power Word: Beer Me is not a real spell.'
p350
sI350
S'I am not allowed to buzz ANYTHING.'
p351
sI351
S'I cannot take skill Profession: Ecdysiast'
p352
sI352
S"When I choose my wizard's familar, Belgians are not a legal choice."
p353
sI353
S'I cannot pick a Destroid that makes the Veritech pilots feel inadequate.'
p354
sI354
S'Tricking the party into killing each other off and then turning in their corpses for the bounty is frowned upon.'
p355
sI355
S'My monk\'s battlecry is not "Round 1: Fight!"'
p356
sI356
S'No matter how well I roll, the Quack skill is not a substitute for the Doctor skill.'
p357
sI357
S'I cannot disassemble a car in under 5 minutes.'
p358
sI358
S'Even if the rules allow it, I cannot make a character that gets double XP per game for showing up.'
p359
sI359
S'Killing quicklings with marbles only works once.'
p360
sI360
S'I must remind the GM that my Blessed can Raise Dead before he runs another murder mystery again.'
p361
sI361
S"It is not feasible for my Archer to recreate Hudson's Last Stand."
p362
sI362
S'It is very unlikely my half-ogre and the half-elf, half-dragon, tiefling and aasimar have the same dad.'
p363
sI363
S"When challenged to a showdown, I'm meant to face him at 10 paces with pistols, not 10 blocks with a Sharpe's Big .50."
p364
sI364
S'I am to avoid killing, upstaging or seducing historical characters.'
p365
sI365
S"Not allowed to setup the main villain with the mad scientist's sister."
p366
sI366
S'Female minotaurs do not have udders. This issue is closed.'
p367
sI367
S'No using excessive firepower to force the plot along.'
p368
sI368
S"My teleporter cannot stop the alien invasion with just the law of displacement, laws of motion, and a huge freakin' asteroid."
p369
sI369
S'Not supposed to stop the soon to be cyberpsycho by disassembling him earlier in the adventure.'
p370
sI370
S'What happens in Sigil does not always stay in Sigil.'
p371
sI371
S'No thinking up new, creative and fun uses for cursed items.'
p372
sI372
S'Cannot start the game blitzed, especially if I was stone sober at the last game break.'
p373
sI373
S'It is bad form for the queen to see my nipples.'
p374
sI374
S'I am not to combine the advantage Fearless and the disadvantage Curious in the same character again.'
p375
sI375
S'Killing the building does not add to my body count.'
p376
sI376
S"The barbarian must remember that 'human shield' is a figure of speech."
p377
sI377
S'My character is required to have a minimum wisdom of 10, that way I have no excuses.'
p378
sI378
S'I can cannot give my character the moniker "Tim the Barbarian". Especially since he\'s the bard.'
p379
sI379
S'I am to stop asking the elf to put a good word in for me with Santa.'
p380
sI380
S'I cannot use the ventriloquism skill to convice the fighter his new sword is a magical talking one.'
p381
sI381
S'Min/Max for combat=good. Min/Max for accounting=bad.'
p382
sI382
S"I can't bet the power gamer he can't solo the module."
p383
sI383
S'It is not ok to use 10,000 rounds to kill two sentries.'
p384
sI384
S'The titles "Viking" and "Obstretrician" are mutually exclusive.'
p385
sI385
S'All characters will use the bathroom before the dungeon crawl.'
p386
sI386
S'The following words are not legal for the command spell: Prognosticate, theorize, notarize.'
p387
sI387
S"I cannot give magic items super easy commands words like 'is' or 'the' and activate when you say them."
p388
sI388
S'Pursue means chase after, not just make called shots to the knees.'
p389
sI389
S'My samurai is not required to commit seppuku if he fails to hit the monster.'
p390
sI390
S"My character's background must be more indepth than a montage of Queen lyrics."
p391
sI391
S'A starting paladin has no conceivable use for industrial lubricant.'
p392
sI392
S'I am forbidden to see whether halflings or gnomes bounce higher.'
p393
sI393
S"If I can fit my head down the gun's barrel, I can assume it doesn't have the non-lethal option."
p394
sI394
S'If the light spell expires, no lighting the dwarf.'
p395
sI395
S'I cannot have any weapon that requires me to crank start it first.'
p396
sI396
S'I will refrain from using wildly inaccurate high explosive weapons in close quarters.'
p397
sI397
S'I will not tell new players that 1st level characters do not have a scent as a defense mechanism.'
p398
sI398
S'No matter what popular media says, harpoons are not proper ninja weapons.'
p399
sI399
S'When I have to pick a starting dementia, Stockholm Syndrome is not appropriate.'
p400
sI400
S'Check the door means to listen at it, not put several rounds through it.'
p401
sI401
S'When a virgin sacrifice is demanded I will not look knowingly at the paladin, netrunner or Hermetic.'
p402
sI402
S'No matter how many people I need to feed, I will not use MDC weapons to fish.'
p403
sI403
S'My rigger does not get a bonus if his log in code is up, down, up, down, left, right, left, right, A, B, A, B, Start.'
p404
sI404
S'No subcontracting dungeon crawls.'
p405
sI405
S'I will not name my character for the power gaming campaign Generic Cleave Path Fighter #7.'
p406
sI406
S'The first rule of Finnegan school is not "Do not talk about Finnegan school"'
p407
sI407
S'I will not blow all my starting funds on hookers and booze.'
p408
sI408
S"If I have to sacrifice my fifth dot in resources to afford it, I can't have that gun."
p409
sI409
S'I will not cast darkness at the magic missile.'
p410
sI410
S"If the NPC is on the cover of the rulebook, I can't kill him."
p411
sI411
S"It is bad form to shoot a god while he's monologuing."
p412
sI412
S'I will not try to skip to the main boss dressed like a singing telegram.'
p413
sI413
S'The chaotic neutral alignment is forever closed to me.'
p414
sI414
S"If my stats are STR10 DEX10 CON8 INT16 WIS17 CHA15 I'd better not be the half-orc barbarian."
p415
sI415
S'My archmage will not join a party running Keep on the Borderlands as a ringer.'
p416
sI416
S'I will not substitute accuracy with enthusiasm.'
p417
sI417
S'The solution to all my problems is not Crinos.'
p418
sI418
S'Steel toe boots do not add to my AC.'
p419
sI419
S'Spankings generally will not change evil alignments.'
p420
sI420
S'"For the King" is an example of a good battle cry. "Smoke the Mother" is not.'
p421
sI421
S"I will not convince the GM's noob GF to play a psychotic combat monster."
p422
sI422
S'My marital status does not affect in anyway my fear checks.'
p423
sI423
S'Even if the rules allow it, I cannot play a duck.'
p424
sI424
S'I cannot liven up the adventure with snappy musical numbers. Even if they did it on the TV show.'
p425
sI425
S'Chainsaws and butter churns filled with bees do not use the same weapon skill.'
p426
sI426
S'Thirty minutes after a massive battle against Cathayans I am not bloodthirsty again.'
p427
sI427
S'I cannot do anything I saw Jackie Chan do once. Even if I am in Home Depot at the moment.'
p428
sI428
S'I will never create a plan that first hinges on the invention of velcro.'
p429
sI429
S"If the character isn't deaf, his only language cannot be AMSLAN."
p430
sI430
S'Spray paint is not a substitute for proper camouflage.'
p431
sI431
S'We will not implement any battle plan that includes the underlined words "And hope they miss a lot"'
p432
sI432
S'Cannot put anything featuring Calvin on my starfighter.'
p433
sI433
S'I will not find a peaceful solution to the adventure just to piss off the power gamer.'
p434
sI434
S'Never again will I convince a player to keep a character nicknamed "Stumpy McLunger"'
p435
sI435
S"No bribing the DM's new GF with chocolate so he'll go easy on us."
p436
sI436
S"Even if my cleric has the domains of Wealth and Healing doesn't give me the right to start an HMO."
p437
sI437
S'From now on my Highlander will refrain from dancing the Can-Can.'
p438
sI438
S"The ability to afflict everyone in 150' with herpes is not an acceptable super power."
p439
sI439
S'I will not start the game as a toddler just to rack up massive stat bonuses as I age.'
p440
sI440
S'I am forbidden from trying to merge the best features of automatic weapons and manual transmissions.'
p441
sI441
S'There is an upper limit on the number of people a bullet will go through.'
p442
sI442
S'When told to be subtle, playing a foul mouthed chain smoking squirrel is not a good choice.'
p443
sI443
S'Zombies are not infectious in D&D. So I should stop shooting PCs in the head if they are bitten.'
p444
sI444
S"Whether it's fair or not, my thief will not insist we take turns checking for traps."
p445
sI445
S"I will not admonish my fellow paladin with 'a little less lawful, a little more good'"
p446
sI446
S'Ninjas are not ablative.'
p447
sI447
S'If the NPC is critical to the plot later, I cannot crit him 4 times in one round.'
p448
sI448
S'I will not attempt to unionize the brutes.'
p449
sI449
S'I will not switch to an entirely new class every single time I level.'
p450
sI450
S"When told to distract the villainess, they didn't mean with a surprise marriage proposal."
p451
sI451
S'I cannot start the campaign conjoined to another character.'
p452
sI452
S'Not allowed to convince the entire party to base the group only off Gary Oldman characters.'
p453
sI453
S"I will not redefine the term 'trapdoor'."
p454
sI454
S'No staking a vampire with anything larger than his chest cavity.'
p455
sI455
S'Styrofoam is not an appropriate component for golems.'
p456
sI456
S'I cannot put my familiar up for stud.'
p457
sI457
S'I did not invent the wet tabard contest.'
p458
sI458
S'"When I\'m in the mood" is not a valid trigger for a contingency spell.'
p459
sI459
S"The vampire clan with vissitude is not pronounced 'Karl'"
p460
sI460
S"I'd better have a real good excuse for being a necromancer if I'm lawful good."
p461
sI461
S"Tasha's Uncontrollably Hideous Sister is not a real spell."
p462
sI462
S'1st Watch is not for accordion practice.'
p463
sI463
S"Even if it is hip to be square, I still can't play a Modron."
p464
sI464
S'2nd Watch is not for starting up pick up rugby games with wandering monsters.'
p465
sI465
S"After a successful black ops, I will not leave paint bombs under all the boardroom's seat cushions."
p466
sI466
S'3rd Watch is not clothing optional.'
p467
sI467
S"There is no 'accidentally' slipping a Smite Evil into a pillow fight."
p468
sI468
S"If the party wakes to find a chariot upside down in a fountain, I'd better not be the prime, usual or only suspect."
p469
sI469
S"If I wake up to find black cloaked figures in my room, I will not immediately point them to the halflings' room."
p470
sI470
S'Sarcasm is wasted on Imperial Stormtroopers.'
p471
sI471
S'I am not fluent in any dialect of gibberish.'
p472
sI472
S'When my cleric is told to "Buff the Elf", I know exactly what it means and may not miscontrue it in any way.'
p473
sI473
S'No matter the CR of the monster, no naked pookie dances upon victory.'
p474
sI474
S'Black and Decker does not make prosthetics.'
p475
sI475
S"Can't trick the rest of the party into babysitting my kids."
p476
sI476
S'The alignment of 2 years olds is not automatically Neutral Evil.'
p477
sI477
S'I cannot spay the Vargyr.'
p478
sI478
S'Castillians do not always end their sentences with the word \'Ariba!"'
p479
sI479
S"As a matter of fact, Dwarven Battlegarb in no way resembles Angus Young's stage costume."
p480
sI480
S"I will not address Fauner Posen with 'Jawohl mein Liebenaffe'"
p481
sI481
S'I am forbidden from doing anything that ends with a snarf, rimshot or spit take.'
p482
sI482
S"No uploading porn to my CO's HUD."
p483
sI483
S"No downloading porn from my CO's HUD."
p484
sI484
S"If the word 'Mullet' appears anywhere on my samurai's character sheet, he's vetoed."
p485
sI485
S'My Mossad agent\'s battlecry is not "Torah, Torah, Torah"'
p486
sI486
S'No matter how tough the encounter was, I will keep the congratulatory ass slapping to a minimum.'
p487
sI487
S'Halfing mating rituals do not include beer can crushing, power belching, or Lynyrd Skynyrd trivia.'
p488
sI488
S"If I have to pull out of the dungeon because I'm low on HP, no filing Workman's Comp."
p489
sI489
S'No making up any strange hobbies just to get out of taking watch.'
p490
sI490
S'Quoting Bob Dobbs while charging into battle is unusual. Quoting Bob Newhart is right out. Quoting Bob Dillan is just silly.'
p491
sI491
S"If my Faith is 4 and your Faith is 2, that doesn't mean Jesus loves me twice as much."
p492
sI492
S'Beer Boy is not an acceptable hireling for the dungeon crawl.'
p493
sI493
S'I will not base any Media character off Milo Bloom.'
p494
sI494
S'I will not use a time machine to invade Germany on September 2, 1939 by surprise, securing Dutch domination of Europe.'
p495
sI495
S'No supplying my own canned applause.'
p496
sI496
S'While Bardic music can increase skill rolls, bad jazz adds nothing to seduction rolls.'
p497
sI497
S'If somebody in the party has a Wisdom or Intelligence lower than 8, I am forbidden from talking to them.'
p498
sI498
S'A firefight is not the best time to tell the party my Medtech has a fear of blood.'
p499
sI499
S'No inventing the minefield.'
p500
sI500
S"My superhero will not spend points to fly just because he's too lazy to walk."
p501
sI501
S'Even if playing a game allowing animal characters, Tai Chihuahua is not a good concept.'
p502
sI502
S'If my name isn\'t Grimlock, can\'t start every sentence with "Me Grimlock"'
p503
sI503
S'Dwarves do not get Beard Cancer.'
p504
sI504
S'If the party is to frequently meet with Queen Victoria, I cannot play a Texan.'
p505
sI505
S"My warrior cleric will not pick his deity solely on the god's BAB."
p506
sI506
S'Mjy Vjikjing Skjald wjill njot tjake ljibjertjies wjith thje rjunjic ajlphjabjet.'
p507
sI507
S'My character cannot give another character the alcoholic disadvantage during play.'
p508
sI508
S'I will not tell the noobie to roll his THACO.'
p509
sI509
S'I will not base my superpowers off of Christ. Even if my character is nothing like him.'
p510
sI510
S'After a bloody battle, I will not celebrate by lying down and making carnage angels.'
p511
sI511
S'When GM demands to know what my character is doing, it better not be "The Charleston"'
p512
sI512
S'The nationality of my favorite soccer team does not add to my Brawl Skill.'
p513
sI513
S'Trying to rip the face off the villain will not get the Scooby-Doo ending.'
p514
sI514
S'No giving my Roman gladiator the short disadvantage and naming him Minimus.'
p515
sI515
S'I am not the Lord of Rodly Might.'
p516
sI516
S'Not allowed to name my characters Grimlock.'
p517
sI517
S'I cannot make called shots to their self esteem.'
p518
sI518
S'Affirmative Action does not require me to play a drow.'
p519
sI519
S'Dual wielding party members is also frowned upon.'
p520
sI520
S'Under no circumstances is my medical droid allowed a groin mounted rectal thermometer.'
p521
sI521
S'I will not convince the entire party to play Amish for the cyberpunk campaign.'
p522
sI522
S'Not allowed to parry at the wrist.'
p523
sI523
S"When I'm rescued the correct response is 'thank you' not 'took your freaking time!'"
p524
sI524
S'I will not ask my gun for advice.'
p525
sI525
S'Running a non-stop Rocky Horror fest for staked vampires is outside the budget for most Samedi.'
p526
sI526
S'If an NPC is known as the "One" I cannot volunteer to be the "Two".'
p527
sI527
S'Even if the rules allow it, I cannot spend $64,000 to get the vorpal option for a forklift.'
p528
sI528
S'I cannot buy every single advantage during character creation.'
p529
sI529
S'My character is not from Duncan, Idaho.'
p530
sI530
S"I cannot earn bonus XP for 'catching air' with an MBT. So stop trying."
p531
sI531
S'No making up gnomish subraces.'
p532
sI532
S'Despite being a staple of comic books everywhere, I cannot teleport objects in front of naked people.'
p533
sI533
S'I cannot increase my comeliness by growing a pornstache.'
p534
sI534
S"When I level up, I just can't copy the guy next to me's choices."
p535
sI535
S'I cannot make a dungeon crawl easier by opening a rival dungeon and hiring away all his guards.'
p536
sI536
S'If a powergamer joins our crew, I will not billet him in the newly furnished auxiliary airlock.'
p537
sI537
S'The Cause Disease spell cannot inflict Nitrogen Narcosis.'
p538
sI538
S'Even if I spend the points, I cannot start married to any of the X-Men.'
p539
sI539
S'Defensive perimeter traps my character sets up are automatically party knowledge.'
p540
sI540
S'A full minute of stunned silence means "My God what did you do?" not "Please continue."'
p541
sI541
S'When prompted for a target by the guided missile "the naughty bits" is not a valid choice.'
p542
sI542
S'No, I do not have time to carve that mountain in the shape of anything.'
p543
sI543
S'There is more to buying rations than ramen, spam and beer.'
p544
sI544
S'I will not cast Gate to bind an infernal creature of power to my bidding and make him mow the lawn.'
p545
sI545
S'No going 100% tracer round on the HMG just because I like the pretty colors.'
p546
sI546
S'Dead party members, while effective, are not appropriate anti-grenade measures.'
p547
sI547
S'Perform skill does not apply to the following: Performance art, spoken word, or fan dances.'
p548
sI548
S'I cannot have a "What Would Ao Do?" bracelet.'
p549
sI549
S'It is not physically possible to cook off an accordion.'
p550
sI550
S'Dwarves can indeed tell the difference between their genders.'
p551
sI551
S'Cannot install Lojack on the Dragonkin.'
p552
sI552
S"If my character's drow wife finds I let my niece appear in a Gnomes Gone Wild Video, my death will not even warrant a saving throw."
p553
sI553
S'No matter how well I make my disguise check, my gnome cannot convincingly pass for any member of Rush.'
p554
sI554
S'Even though armor gives him no benefit, my monk still has to wear something.'
p555
sI555
S"I will stop snickering every time the monk announces he's touching someone with his quivering palm."
p556
sI556
S"Even though I'm the ranger, I can't stalk the elf babe."
p557
sI557
S"If they get a bonus to spot my gun with a geiger counter, I can't have it."
p558
sI558
S"There is not a 'Take your daughter to work day' for adventurers."
p559
sI559
S"Even if the Ranger offers his sword, the elf his bow and the dwarf his axe, my gnome can't offer his accordion."
p560
sI560
S"Can't hire a sentient black pudding to be the ship's janitor."
p561
sI561
S"I can't play a deep gnome just to make the rest of the party have to pronounce Svirfneblin."
p562
sI562
S'"Pass without trace" doesn\'t work on bad checks.'
p563
sI563
S"I can't make anyone Jewish with a called shot."
p564
sI564
S"The Lutherans don't have an inquisition."
p565
sI565
S"My vampire hunter can't have anything he saw on an infomercial at 3am on PBS."
p566
sI566
S'When confronted with a haunted house with bleeding walls, no converting it into a self supporting blood bank.'
p567
sI567
S'I cannot consult my lawyer before making my wish.'
p568
sI568
S'My first wish cannot be "I wish you grant all my wishes to the spirit and letter of the wish\''
p569
sI569
S'All 3 of my wishes cannot involve Alpacas.'
p570
sI570
S'The DM does not want to know how my human fighter is triple wielding scimitars.'
p571
sI571
S"I will not secretly maze the wizard's familiar, druid's companion or paladin's mount just for a laugh."
p572
sI572
S'Even if the rules say otherwise, I cannot carry 100lbs of styrofoam without encumbrance penalties.'
p573
sI573
S'Improved evasion does not work against Save vs. DM.'
p574
sI574
S'"Get dressed quickly in the dark" is not an advantage, bonus, benefit, feat, skill, perk or merit.'
p575
sI575
S"Even if I'm a near immortal demi-god with the power to create entire worlds with a thought, still bad to throw a party when Dad's away without permission."
p576
sI576
S"I can't use my sneak attack opportunity to cop a feel."
p577
sI577
S"No matter how stupid the PC's comment, it doesn't provide an attack of opportunity."
p578
sI578
S'Rectomancy is not a school of magic.'
p579
sI579
S'"Pimp my Death Star" is not a real show, and I\'d better believe Grand Moff Tarkin knows this.'
p580
sI580
S'A sledgehammer does not give any bonus to my search for secret doors roll.'
p581
sI581
S"No filling the paladin's stocking with coal on Christmas to make him wonder what he's got to atone for."
p582
sI582
S"I can't thwart the Rebel Alliance's attack with the newly invented manhole cover."
p583
sI583
S"Can't intimidate the evil wizard just by constantly summoning bigger versions of what he's just summoned."
p584
sI584
S'On second thought, a minotaur architect is a really bad idea.'
p585
sI585
S'No using psychic powers before the adventure to figure out who to take life insurance out on.'
p586
sI586
S'Cannot spend extra money to get the optional "flay" setting for my pistol.'
p587
sI587
S'No taunting the 1st level magic user with "Mighty bold talk for a guy with only 4HP."'
p588
sI588
S"Paladins are immune to STDs, but if I take advantage of this ability, I lose it. Wonderful paradox, isn't it?"
p589
sI589
S"If my gun on a scale of 1-10 is a 7, it's vetoed if that's the Richter scale."
p590
sI590
S"I can't convince the rival party our Q-Ship is just named that because it's piloted by John DeLancie."
p591
sI591
S'Defibrillators do not allow me the use of the Cleave feat.'
p592
sI592
S'No matter how well I roll, other PCs cannot be haggled into paying me to perform errands for me.'
p593
sI593
S"Tensor's Herniated Disc is not a real spell."
p594
sI594
S'True to fluff or not, my berserker cannot take the beekeeping skill.'
p595
sI595
S'I cannot pick a race with a prehensile ANYTHING.'
p596
sI596
S'No dual wielding whips until I at least have proficiency with them.'
p597
sI597
S'The party does not need to know about the time I woke up duct taped to the back of a Drow Matron Mother.'
p598
sI598
S'Any adventure that ends up with my character being worshiped as an orc god was just a dream. Retroactively if need be.'
p599
sI599
S"Cannot start the new adventure with me trying to run down who ever didn't show up for the last adventure."
p600
sI600
S"Even if I'm a wizard, I still can't apply embarrassing tattoos to the NPC."
p601
sI601
S'If we run out of cannonballs armadillos will not do in a pinch.'
p602
sI602
S'Find Familiar scrolls are not a substitute for the hunting skill.'
p603
sI603
S'I cannot have any gun mentioned in the Geneva Convention by name.'
p604
sI604
S'If my alignment forbids torture, that includes Gnomish Poetry Slams.'
p605
sI605
S"Even if this an adventuring party, I can't show up to the adventure drunk and wearing only a toga, lampshade and half elf stripper."
p606
sI606
S'If my power is super growth, that includes my skin.'
p607
sI607
S'A N-Scale tuba player is not an appropriate miniature for my gnome bard.'
p608
sI608
S"The answer to 'who's got point?' is not the fireball."
p609
sI609
S'No diety will let me use my nipples as holy symbols.'
p610
sI610
S'I cannot name my character Dwead Piwate Woberts.'
p611
sI611
S"No initiating social challenges based only on the color of the werewolf's shoes."
p612
sI612
S'Every time a PC takes himself out through his own stupidity does not let me sing the Oompa-Loompa song.'
p613
sI613
S"I can't have a magic item I can't request with a straight face."
p614
sI614
S'My superhero tank must be height/weight proportionate.'
p615
sI615
S'One close call with a mimic does not give me the right to attack every door I come across.'
p616
sI616
S"Even if they are the same cliched acid for blood aliens, can't load my shotgun with baking powder."
p617
sI617
S'The forehead is not an appropriate place for a kill count holo-tattoo.'
p618
sI618
S'No matter how much my humanity loss, a chainsaw is not a substitute for a bayonet.'
p619
sI619
S"No matter what the dice say, I can't kill a 4th gen vampire with a pump action loaded with buck in a single round."
p620
sI620
S"My Blessed does not have the hindrance Ailin': Stigmata."
p621
sI621
S'No offering the old man and the farm kid a better rate to Alderaan.'
p622
sI622
S'Paladins make poor vikings. And vice versa.'
p623
sI623
S'Even if the rules allow it, I cannot play a Dire Gummi Bear.'
p624
sI624
S'When asked what my character is doing, it had better not be the vitakinetic.'
p625
sI625
S"I must remember before the next time I shave off the sleeping dwarf's beard and glue it to the sleeping elf, wars have been started that way."
p626
sI626
S'Dwarves are not proper substitutes for pufferfish.'
p627
sI627
S'The GM decides if my character dies from a stroke, not me.'
p628
sI628
S"I can't use audible glamour to trick the cleric into building an ark."
p629
sI629
S'Just because they are all into rock, metal and axes, dwarves are not all headbangers.'
p630
sI630
S"Replacing the solo's bullets with blanks so he comes in dead last in bodycount isn't funny."
p631
sI631
S'Medicine cabinets are not the best place to stash spare squeeze tubes of explosive putty.'
p632
sI632
S"When asked to tutor someone on his defense trait, can't keep punching him until he get it."
p633
sI633
S"When told to choose my weapon in a duel with the assassin, can't pick his weapon."
p634
sI634
S"Cannot recreate any scene in 2001: Space Odyssey involving women's lingerie."
p635
sI635
S"Arguments cannot end with the statement 'Alright, we'll settle this like penguins!'"
p636
sI636
S'Recon means tell them what I saw, not slaughter all the monsters without them.'
p637
sI637
S'German characters do not gets 4 racial bonus to intimidate French characters.'
p638
sI638
S'The DM is not impressed by me spoiling his well planned ambush by just casting Glassee on the door.'
p639
sI639
S"Before hiding with all the werewolves to ambush the Settite, make sure he didn't leave the LARP 4 hours ago."
p640
sI640
S'Even if he loves me too, Chitti-Chitti-Bang-Bang is not an appropriate choice for the romance background.'
p641
sI641
S'Casual attire does not include shoulder holsters.'
p642
sI642
S"My character's grandma was not, is not and will never be a contract killer."
p643
sI643
S"Even if the rules allow it, I can't gain 1,000,000 XP with one forged check."
p644
sI644
S'No matter how much mousse I use, my hair will never have damage resistance.'
p645
sI645
S"My matter how high my faith skill, still can't take God as an ally."
p646
sI646
S'If the game store owner goes into vapor lock, the adventure is over.'
p647
sI647
S"Any answer to a question involving the words 'wizard', 'station wagon' and 'wood paneling' is no."
p648
sI648
S"Can't marry off another PC more than half a dozen times."
p649
sI649
S'Zero bodycount does not mean just the ones they can find.'
p650
sI650
S"Gnolls don't fall for the fake ball trick more than once."
p651
sI651
S'My alignment is not Sarcastic Good.'
p652
sI652
S'My fighter cannot take the flaw: Addiction- stabbing things.'
p653
sI653
S'Cannot wish for the party to have common sense. Even the wish spell has its limits.'
p654
sI654
S'If the party goes into my room and finds a Deva wearing only baby oil, oven mitts and spurs, they can start the module without me.'
p655
sI655
S"When asked my position in the party, it's not 'whatever's closest to Bangkok.'"
p656
sI656
S'A crayon is typically going to cause a penalty to my forgery skill.'
p657
sI657
S"Can't put a glass bottom on my tank to I can see the looks on their faces."
p658
sI658
S'Changing sexes is restricted to male or female.'
p659
sI659
S'Quoting Ministry lyrics is not SOP for the Gladius Dei.'
p660
sI660
S'Walmart is not my one stop shopping place for hunting vampires.'
p661
sI661
S"The line on my character sheet for 'Sex' is not for keeping score."
p662
sI662
S'My Paladin will stop referring to her detect evil power as Evildar.'
p663
sI663
S"Even if I just rolled 832d6 for damage, still can't get a bonus to my intimidate check."
p664
sI664
S"Unlike real life, I don't gain the whirlwind attack to smack all my backtalking children."
p665
sI665
S'My WW2 era mad scientist will pick a new target for his project other than Manhattan.'
p666
sI666
S"When offered a Dracheneisen item of my choice, can't pick Nunchucks."
p667
sI667
S"No matter what the dice say, can't decapitate an Aberrant with a straight razor."
p668
sI668
S'AT-ST soccer games are strictly against Imperial Army protocols.'
p669
sI669
S'Cannot name Boba Fett as a godparent to any of my children.'
p670
sI670
S"While I'm fixing the X-Wing, the brash pilot is still miffed about the Y-Wing loaner."
p671
sI671
S'House Kurita Mechwarriors do not appreciate posters of Godzilla taped over their optical sensors.'
p672
sI672
S'Teleport Without Pants is not a real spell.'
p673
sI673
S"It's not necessary to install a portcullis in every single room of my castle."
p674
sI674
S'When deciding what to do with the ancient alien artifacts we discovered, EBAY is not an option.'
p675
sI675
S"Even if the rules allow it, I can't take the identical twin advantage 22 times."
p676
sI676
S"My character's primary purpose in the party is not to just leech 1/6 of all the XP."
p677
sI677
S'Elves do not have the racial trait: No Gag Reflex.'
p678
sI678
S'Distract the bad guy does not mean with a recreation of the Apollo landing.'
p679
sI679
S'I do not have time in the Black Ops for break dancing, Greco-Roman Wrestling or phone sex.'
p680
sI680
S"My axe doesn't go off accidentally when I'm cleaning it."
p681
sI681
S"Even if he is a total blast, can't channel Baron Samedi at a Coming Out Ball."
p682
sI682
S"Can't make a called shot with a flamethrower."
p683
sI683
S'After finishing the cliched "New boss is villain" adventure, can\'t file for unemployment.'
p684
sI684
S"My mummy can't take out multiple life insurance policies on himself and name himself the prime beneficiary."
p685
sI685
S'The game of chicken does not involve the polymorph spell.'
p686
sI686
S'My vampire hunter does not take the "un" out of "undead"'
p687
sI687
S'I cannot backstab anybody with a Buick Skylark.'
p688
sI688
S'Even if the rules allow it, my Paladin cannot have the flaw: Hatred- All living things.'
p689
sI689
S'The combat feats I can use with a battering ram are extremely restricted.'
p690
sI690
S"Mordenkainen's Dysfunctional Family is not a real spell."
p691
sI691
S'No matter what the kids say, animated balloon animals is a poor use of the Create Golem feat.'
p692
sI692
S"The Dr. Jones School of Swordfighting is not an appropriate Swordsman's School."
p693
sI693
S"There is no conspiracy to write out the gnome's contribution to the Fellowship of the Ring."
p694
sI694
S'Search the old castle means enter it, not level it with artillery and dig through the rubble.'
p695
sI695
S"Buying the Elf Babe a trampoline and telling her it boosts her Dexterity isn't fooling anybody."
p696
sI696
S'Any plan involving strapping puppies to my armor is vetoed.'
p697
sI697
S'No "accidentally" crosswiring the X-Wing\'s fire control and ejection seat switches.'
p698
sI698
S"During the Black Ops no accessing the target's HR files and getting babes' phone numbers."
p699
sI699
S'Fed Ex does not deliver to the Keep on the Borderlands.'
p700
sI700
S"Not allowed to use basic economics to crash the evil empire's economy by spending all my swag there at once."
p701
sI701
S'Cannot take the moniker "the Hyperpolysyllabicsesquipedalinist"'
p702
sI702
S'The Banana of Disarming is not a real magic item.'
p703
sI703
S'Cannot sharpen Ioun stones for increased headbutt damage.'
p704
sI704
S'No using my hideously low Charisma to get the villain to do the opposite of what I suggest.'
p705
sI705
S'Need to stop using my reality altering ability to make every day Mardi Gras.'
p706
sI706
S'Cannot base my barbarian after Wink Martindale.'
p707
sI707
S'A throat punch does not give a bonus in a contested philosophy check.'
p708
sI708
S"My paladin mini is vetoed if it's obviously Private Drake from Aliens."
p709
sI709
S'Any plan is vetoed if it was obviously inspired by Boromir.'
p710
sI710
S"My info gathering mission must include info that wasn't obviously obtained in a brothel."
p711
sI711
S"If almost all the words in my character's background start with the same letter, he's vetoed."
p712
sI712
S"When told to leave a trail for the rest of the party to follow, they didn't mean with cigarette butts."
p713
sI713
S"Even if the rules allow it, can't sink a battleship with a stapler."
p714
sI714
S'I do not get a bulk discount on ninjas.'
p715
sI715
S"Even if the rules allow it, I can't invent the strip joint."
p716
sI716
S"I cannot play a race the GM can't pronounce."
p717
sI717
S'I cannot start the game in post-apocalyptic Poland driving a Porsche.'
p718
sI718
S"Warnings given retroactively in battle aren't appreciated."
p719
sI719
S"A fluffy tail does not add to my comliness if I'm already 1' tall, furry and a squirrel."
p720
sI720
S'Don\'t have to include the line "And then stab them a lot" in the plan; it\'s already assumed.'
p721
sI721
S'Even if my super power is invisibility, still have to provide a model for my character.'
p722
sI722
S"Can't intentionally fail all my secret door checks so I don't have to play Tomb of Horrors again."
p723
sI723
S"If my character is related to a god, it can't be as a parent."
p724
sI724
S'The time machine is not for finishing my set of Disciple autographs.'
p725
sI725
S"No, there is not a Mr. Of Arc. No, I still can't hit on her."
p726
sI726
S'My black ops experience does not include panty raids and beer runs.'
p727
sI727
S'Cannot singlehandedly make Starfleet Academy the #1 party school in the Alpha Quadrant.'
p728
sI728
S'Not legal to retroactively challenge anyone I just shot to a duel.'
p729
sI729
S"Cannot take the flaw Obsession: Elf Chick's lingerie."
p730
sI730
S'No part of the plan includes: You give me the idol, I give you the whip.'
p731
sI731
S"No matter how many called shots to the neck I make, I'm still not going to cause a cool pyrotechnics display."
p732
sI732
S'Not allowed to trade in my X-Wing for a Gunstar.'
p733
sI733
S'Cannot make a plan that hinges on the villain first being allergic to peanuts.'
p734
sI734
S'My character\'s background cannot be a wikipedia biography with "Falco" crossed off and my character\'s name written in.'
p735
sI735
S'Adding hydrolics to my R2 unit does not give him an intimidate bonus.'
p736
sI736
S'No taking the party to Kara-Tur just because my character has a thing for Asian chicks.'
p737
sI737
S'Will not color code everything on the ship just to piss off the Vargyr.'
p738
sI738
S'Though highly educational, no more slipping the anti-paladin sodium pentathal.'
p739
sI739
S"Can't make the blacks ops super easy by sending a couple of strippers to the guardroom first."
p740
sI740
S'Not allowed to give my character a name from a bushman click language.'
p741
sI741
S'Not possible to tap a keg for mana.'
p742
sI742
S"Apparently Chaotic Angry and Neutral Hungry aren't real alignments either."
p743
sI743
S"Even if the rules allow it, can't takes out an MBT with a shotgun loaded with slug."
p744
sI744
S"My second wish can't be for a new, more open minded genie to grant my remaining wishes."
p745
sI745
S"Can't wish I was the GM."
p746
sI746
S'No making up holidays for my cleric.'
p747
sI747
S"Can't just walk the obstacle course, even though I beat everybody who tried to run it."
p748
sI748
S"Holding a pillow over a sleeping person's face is not a gnomish expression of affection."
p749
sI749
S'There is not a Spent Clip Fairy.'
p750
sI750
S'A bag of holding is a bad place to stash bear traps, badgers or crushed glass.'
p751
sI751
S'If the party has to pose as classical German composers, I will not declare "I\'ll be Bach"'
p752
sI752
S'Cannot take the spetum as my favorite weapon just because it sounds dirty.'
p753
sI753
S'No encouraging swedish accents.'
p754
sI754
S"Even if the rules give no maximum encumbrance, still can't pick up the bank and walk away with it."
p755
sI755
S"There is a reason no game has pasties in it's starting equipment list."
p756
sI756
S'The Power Armor skill does not have a cascade skill dance.'
p757
sI757
S'I will not build a character with a skill from every single expansion book.'
p758
sI758
S"Not allowed to take a toad for a familiar just for it's pharmaceutical properties."
p759
sI759
S'Restricted to one blue chip for humor per game.'
p760
sI760
S"Can't use the time machine to rename famous historical discoveries after myself."
p761
sI761
S'Not allowed to forge the 1.1 ring.'
p762
sI762
S"Fighter can't put points in Perform just so he can hammer dance after each fatal critical hit."
p763
sI763
S'No slipping the juicer Ritalin.'
p764
sI764
S"In the middle of a chase in a commandeered car can't spend an action to change the radio presets."
p765
sI765
S"Can't parry with a called shot to the face."
p766
sI766
S"No more Crazy Ivans while I'm driving the AT-AT."
p767
sI767
S"When challenged to a high noon shoot-out, that means in the time zone I'm currently in."
p768
sI768
S'Burning my bard song on CD and putting it on repeat does not mean the effect never ends.'
p769
sI769
S"Before turning undead, make sure the assassin didn't take the vampire template."
p770
sI770
S"My mythos investigator doesn't talk in his sleep."
p771
sI771
S'Mashed potatoes do not add to my damage resistance.'
p772
sI772
S'Not allowed to base a paladin off Lee Marvin.'
p773
sI773
S'My great axe priviledges can be taken away.'
p774
sI774
S"If I've leveled up 5 times to the Dragonkin's 0, that doesn't mean I'm lapping him."
p775
sI775
S'My investigator\'s motto is not "99% Mythos Lore, 1% Sanity- don\'t push me"'
p776
sI776
S'Even if it was obviously in self defense, my character is not allowed to kill George Takei.'
p777
sI777
S'Tai Kwan Doberman is not a real martial art.'
p778
sI778
S'It is not possible to bioengineer a kosher pig.'
p779
sI779
S"Even if we are in Ravenloft, Paladin can't go up ten levels in one night."
p780
sI780
S'When told I have to join the RPGA to play in a game, can\'t sign the membership card "D. Duck."'
p781
sI781
S'My tribe\'s trial by combat ritual is not best described as "Calvinball with axes"'
p782
sI782
S"My paladin's job is not to enforce happiness."
p783
sI783
S'The following are also not acceptable Ironclaw characters: Mortal Wombat, Dalai Llama, Boom Orangutan.'
p784
sI784
S'Monks do not make 3 Stooges sounds in combat.'
p785
sI785
S"Even if the rules allow it, can't shoot 20 guys in one round with a musket."
p786
sI786
S'No I cannot keep the drow priestess we just found as a pet.'
p787
sI787
S'"Start a career in modeling" is not an appropriate use of the Suggestion spell.'
p788
sI788
S'"You take the scary one" is not our default battle strategy.'
p789
sI789
S"Even if it's for his own safety, can't secretly remove the firing pins from the powergamer's guns."
p790
sI790
S"If I have access to warm water, I don't take watch unsupervised."
p791
sI791
S'Not allowed to give any birthday gift to a child that immediately earns me a dark side point.'
p792
sI792
S"Despite the movie's claims, Wookies get no racial bonus for chess."
p793
sI793
S"When building a superhero, can't spend half his points on radar sense and the other half on cooking."
p794
sI794
S'Pregen characters do not have cutesy nicknames, even if their real names are pretty lame.'
p795
sI795
S'Improved Evasion is not solid proof "Duck and Cover" works.'
p796
sI796
S"In the middle of the black ops can't lock a bunch of long haired molting cats into the CEO's office."
p797
sI797
S'If in the middle of our dressing down our CO strokes out, we took the joke too far.'
p798
sI798
S'Not allowed to use guppies as buckshot.'
p799
sI799
S"Can't hunt drow with a spotlight and 30.06."
p800
sI800
S'The default response to a social challenge in any game is not to just shoot them.'
p801
sI801
S'We do not settle disputes in Paper-Rock-Scissors with games of Vampire.'
p802
sI802
S'Fake eye spots on my helmets do not help intimidate the monster.'
p803
sI803
S"If my personal carried firepower exceeds that of the Battleship Texas, there's a problem."
p804
sI804
S"I cannot take the Dementia: Obsession counting things if I'm not a Malkavian."
p805
sI805
S"On second thought, I can't take it even if I am a Malkavian."
p806
sI806
S"My character cannot have a noticeable impact, positive or negative, on a town's population."
p807
sI807
S'Large dice are for rolling. Not sound effects.'
p808
sI808
S'Covering fire does not include nuclear weapons.'
p809
sI809
S"I don't earn the bonus XP for a written background if it's just a summary of the plot to Dig-Dug."
p810
sI810
S"While the party is off searching for secret doors, can't position the slain orcs in compromising positions."
p811
sI811
S"In the middle of a black ops can't reprogram the cleaning droids to wax the floors for 12 hours straight."
p812
sI812
S"I don't have to take a lower level bard adventuring as my opening act."
p813
sI813
S"Taking the orc warlord's skull as a trophy is acceptable. Not as a hand puppet."
p814
sI814
S'Sending the villain a nymph stripper only works once.'
p815
sI815
S'Somebody doesn\'t "accidentally" fall on two dozen shanks.'
p816
sI816
S'The adventure wrap up is the epilogue. Not Miller Time.'
p817
sI817
S'Cannot challenge anyone to a dance off. To the death.'
p818
sI818
S'Augment their psi means their mental powers, not their air pressure.'
p819
sI819
S'Taking each class as I level in alphabetical order is forbidden.'
p820
sI820
S"Even if the rules allow it, my Paladin can't serve the god of obituaries."
p821
sI821
S'My sorcerer will not take a level in druid just to make it easier to get to the flammable stuff.'
p822
sI822
S"If everybody in the room is in black leather, we're in the thieves' guild. Not a fetish club."
p823
sI823
S'Even if infinitely useful, absolute power over elastics is not an appropriate super power.'
p824
sI824
S'The back up trap handler is not the guy with the lowest INT.'
p825
sI825
S'I cannot have Bracers of Brachiation until I tell the DM what brachiation really means.'
p826
sI826
S'Elves do not respond to chainsaws the same ways dogs react to vacuum cleaners.'
p827
sI827
S'My battlemech does not play Dixie every time I hit the jump jets.'
p828
sI828
S"Even if the mages critically fumbles his stealth check, can't threaten to bleed him slow."
p829
sI829
S"Despite the song's claim, a pelvic thrust does not cause Sanity loss."
p830
sI830
S"Even if we are in Sweden, I can't use one blanket seduction check on the entire crowd."
p831
sI831
S"I didn't 'accidentally' forget to buy any skills."
p832
sI832
S"I will not run up my bar tab and then skip out leaving the DM's super NPC to foot the bill."
p833
sI833
S'Overrunning a larger army is not a glorious victory if it happened at 3AM and they were still in bed.'
p834
sI834
S"I will stop reminding Elminster he's not as cool as Merlin, Gandalf or that shapechanging wizard from Krull."
p835
sI835
S'I cannot lure out the Psycho Killer into an ambush by having sex with another character.'
p836
sI836
S"No paraphrasing the party leader's elaborate plan as 'pick somebody you don't like and let them know it.'"
p837
sI837
S"Even if the rules allow it, I can't take the 1st Armored Division as an ally."
p838
sI838
S"Doesn't matter how high my influence is; I still can't make Carmen Miranda hats part of the unit's dress code."
p839
sI839
S"In the middle of a black ops no inserting a memo into the target's computer mandating 'clothing optional Mondays'."
p840
sI840
S"Even if it would have immediately solved the last six adventures, I won't throw dynamite in every well I come across."
p841
sI841
S"No more tricking rookies into putting whoopie cushions on Lord Vader's throne."
p842
sI842
S'When handed Dieties and Demigods and told to pick a god for my druid, I will skip right by the Cthulhu Mythos.'
p843
sI843
S"It doesn't matter how high his hit points or damage reduction are, we aren't sending the dwarf into battle via catapult."
p844
sI844
S'As a matter of fact, Jeopardy does screen for telepaths.'
p845
sI845
S'It\'s not a good idea to taunt Greek heroes with "Who\'s your daddy?"'
p846
sI846
S"Doesn't matter if it's an anime style game, I don't get a bonus to hit with eyepokes."
p847
sI847
S'Polymorph Mother-in-Law is not a real spell.'
p848
sI848
S'The Caern is not "Disneyworld as if run by coyotes"'
p849
sI849
S'The FBI tends to notice when people buy several miles of hamster tubing at once.'
p850
sI850
S"Doesn't matter how practical, we aren't reanimating the dead dragon and having him haul that horde back for us."
p851
sI851
S'When plumbing the depths of depravity, I must remember to come up for air.'
p852
sI852
S'Any superhero offensive to more than two major religions is vetoed.'
p853
sI853
S"Even if I'm faced with yet another Get of Fenris Lupus Ahroun, I will not refer to him as CliChe Guevara."
p854
sI854
S'We will not take the dead dryad with us to use as kindling.'
p855
sI855
S'I will not keep reincarnating that bugbear until he comes back as something we can actually eat.'
p856
sI856
S'A funeral is not a proper place for setting new fashion trends.'
p857
sI857
S'I will not disbelieve the magic mouth before he gives out the important plot information.'
p858
sI858
S"Even if it is hours of entertainment, can't feed the Red Talon peanut butter."
p859
sI859
S"I will concede we're on a dungeon crawl and stop trying to talk to the monsters."
p860
sI860
S'Under religion I cannot put Born Again Klingon.'
p861
sI861
S'I will not use undocumented zombie workers to help build my castle.'
p862
sI862
S"Bigby's Offensive Finger is not a real spell."
p863
sI863
S'Even if there is no alignment in Traveller, giving feuding TL1 tribes TL12 weapons and putting the results on PPV is just wrong.'
p864
sI864
S"My doctor's bag will contain more than just a bonesaw and a bottle of whiskey."
p865
sI865
S'I do not put the cad in decadent, nor the rave in depraved.'
p866
sI866
S"Even if it's catchy, I don't have to yell my battlecry everytime I roll to attack."
p867
sI867
S"We can't all play bards just to relive our favorite Spinal Tap moments."
p868
sI868
S"I cannot have a gun with an area of affect larger than it's range."
p869
sI869
S'Richard Simmons is not an appropriate role model for a Get of Fenris.'
p870
sI870
S'I will not use my vast personal knowledge of Dublin, Texas to get an unfair advantage in the campaign.'
p871
sI871
S'My halfling cannot take the flaw Obsession: Ring of Invisibility.'
p872
sI872
S'Any gun that sets off the metal detector before I even pass through it is vetoed.'
p873
sI873
S'I will not combine Thermographic Sights and a gun that can shoot through walls. It makes Black Ops too easy.'
p874
sI874
S"After cleaning out Ravenloft, when it's my turn to pick treasure, can't call dibs on the castle."
p875
sI875
S"If my superhero has a healing factor, claws, combat sense and longevity, he can't take the flaw Total Pacifist."
p876
sI876
S"If I want to play a rampaging nordic warrior and get handed a treehugging elf hippie instead, I can't play her like a rampaging nordic warrior."
p877
sI877
S"Even if I am playing a chick, I can't spend all my starting cash on shoes."
p878
sI878
S'Rifts in the time/space continuum are not for my personal amusement.'
p879
sI879
S'Buying a bigger gun does not restore sanity.'
p880
sI880
S'Searching the dead PC for spell components is ok. Using him for spell components is not.'
p881
sI881
S'Any character that can run the 2 minute mile is vetoed.'
p882
sI882
S'I will not convince the party to name all the characters the same thing.'
p883
sI883
S'I do not need to see proof of insurance before making a medtech roll.'
p884
sI884
S"Customs doesn't care what my charisma bonus is."
p885
sI885
S'Halflings do not store food in their cheeks for winter.'
p886
sI886
S'Elves are not deciduous.'
p887
sI887
S'Despite evidence to the contrary, half-elves do not automatically go both ways.'
p888
sI888
S'Breast enhancing spells gain no benefits from meta-magic feats.'
p889
sI889
S'I will not try to regain sanity by nailing the reporter chick in public.'
p890
sI890
S'Dwarves do not get Roto-Rooters as racial weapons.'
p891
sI891
S"I will not brag too loudly I'm the real reason behind the sinking of the Titanic."
p892
sI892
S"Cultists tend to notice if you've replaced their summoning ritual with Jitterbug instructions."
p893
sI893
S"Invisibility is all or nothing, can't just target their clothes."
p894
sI894
S"I can't just keeping buy rounds of drinks until everybody passes out so I can rob them."
p895
sI895
S'I will not miss the final epic battle just because I crit my seduction check.'
p896
sI896
S'Polish is not a sub-dialect of gnomish.'
p897
sI897
S'Any action causing the powergamer to storm off while actually appreciated is frowned upon.'
p898
sI898
S'Healing people of other faiths gets a penalty in Deadlands. Not Serenity.'
p899
sI899
S'I will not have the architect build my castle using a hexadecimal base to screw with the powergamer.'
p900
sI900
S'I will not fill the bag of holding with dirt so we can just fill in pit traps as we detect them.'
p901
sI901
S'In the middle of the Black Ops a diversion is not blowing off the top twenty floors of the building.'
p902
sI902
S"Can't set the bad guy on fire until after I've blown the persuasion roll."
p903
sI903
S"If I fail to make a bluff check, can't shoot him to change it to an intimidate check."
p904
sI904
S'Not possible to fire a gun with your teeth.'
p905
sI905
S"Humming the James Bond theme in the middle of a Black Ops doesn't give me any bonuses."
p906
sI906
S'They make platemail in a variety of styles. Crotchless is not one of them.'
p907
sI907
S"Can't use my attack bonus as a substitute for the skill: Hibachi Chef."
p908
sI908
S"I can't take Telekinesis as an auxilary mode just to get free food from the snack machine."
p909
sI909
S'Dual wielding spike chains does not let me use the battlecry "DANGER WILL ROBINSON DANGER!"'
p910
sI910
S'I will not convince the entire party to play rockerboys so we can be a Europe cover band.'
p911
sI911
S"Can't take a level of monk just for tone."
p912
sI912
S'Droogie is not a starting language.'
p913
sI913
S"After casting my one first level spell, can't leave the dungeon to go sleep."
p914
sI914
S"Can't bribe the biokinetic to take my drug test for me."
p915
sI915
S"On second thought, let's not disguise the wookies in the stormtrooper uniforms."
p916
sI916
S'A runic facial tattoos is acceptable for my berserker. Not a Betty Boop.'
p917
sI917
S"Have one point in every single skill in the game doesn't count as a super power."
p918
sI918
S"Can't clean out the dungeon by renting the adjacent dungeon and being as obnoxious as possible."
p919
sI919
S'Goldfish do not get a bonus in a staredown.'
p920
sI920
S"My mech gunner can't have a nude pinup in his cockpit. Especially if it's of his pilot."
p921
sI921
S'"But she\'s hot!" is not an acceptable excuse for my Black Ops solo dating the tabloid reporter.'
p922
sI922
S"No matter how much we look, we're not finding the secret door leading to the back of the villain's hideout."
p923
sI923
S'Druids do not hibernate.'
p924
sI924
S'Before I make my next wish I have to ask myself: "Is this going to shatter the very fabric of reality again?"'
p925
sI925
S'Any gun that can fire more rounds in one shot than I can physically carry is vetoed.'
p926
sI926
S'If given a stock NPC, I must play him as written. So Jar-Jar has to lose the sarape and the cigar.'
p927
sI927
S"I do not get a bulk discount at the jenny's guild."
p928
sI928
S'The Flaw: Odious Personal Habit- Teleports into romantic moments is only available at the maximum penalty.'
p929
sI929
S'Telekinetic Redhead Chick is not a real superhero.'
p930
sI930
S'Even if the rules allow it, I cannot circumnavigate the world on foot in one turn.'
p931
sI931
S'There are no alignment restrictions on becoming a lawyer.'
p932
sI932
S'Nowhere in the bible does it say ninjas have to line up in a straight line to fight me.'
p933
sI933
S"If escorting a high priority target, I can't biosculpt the entire team to look like her."
p934
sI934
S'Nerve gas complicates fast talk rolls.'
p935
sI935
S"Cannot take the shape of any animal the GM doesn't know."
p936
sI936
S"'The power of Christ compels me' does not justify my Blessed's actions."
p937
sI937
S'I cannot take life insurance out on anybody I have for the enemy background.'
p938
sI938
S"Psychotherapy doesn't eliminate the alignment change penalty."
p939
sI939
S"Just because I've hit name level does not automatically give me groupies."
p940
sI940
S'I will not abuse the Exemplary virtue to set up highly choreographed dance routines with random crowds.'
p941
sI941
S'In the middle of a black ops I cannot make an educational video.'
p942
sI942
S'We do not need an elf on this dungeoncrawl for the same reason miners need canaries.'
p943
sI943
S'I am not Bjorn of Borg.'
p944
sI944
S'Before accepting a harem as a reward for my heroism, need to check with the wife.'
p945
sI945
S"I don't get any equipment before the GM can Google it."
p946
sI946
S"If Australia doesn't exist, I can't use my Australian accent. Even if I am playing a space koala."
p947
sI947
S"I cannot bet the powergamer he can't field strip the grenade faster than me."
p948
sI948
S"Even if the rules allow it, I can't catch dropped cannonballs with my teeth without drawbacks."
p949
sI949
S"I will not make my castle's halls 9x9x9' to keep out gelatinous cubes."
p950
sI950
S'The ability to give superpowers to characters is acceptable. Naming the character Captain Franchise is not.'
p951
sI951
S'The most important stat in Call of Cthulhu is not movement.'
p952
sI952
S"Keifer Sutherland does not make numerous cameos in my character's background telling him he's destined for greatness."
p953
sI953
S"No matter how high my strength, still can't use that wall as a shield."
p954
sI954
S"I will not convince the entire party to play identical copies of the same character on the grounds we're sextuplets."
p955
sI955
S"No matter his age, my bard can't start a boy-band."
p956
sI956
S"Despite the halberd being 6' long, it can't hit monsters more than 5' away."
p957
sI957
S"Even if it's been more than two hours since we left the bar, the dwarf isn't getting the DT's."
p958
sI958
S"No matter how practical, I can't have shotgunchucks."
p959
sI959
S'The town drunk is not our one stop source for all mythos happenings in every town.'
p960
sI960
S'I will not base my Call of Cthulhu character off the lead character in Slingblade.'
p961
sI961
S'Even if I am pissed for working on my birthday, in the middle of a Black Ops I will not refer to my CO only by his first name.'
p962
sI962
S"If I don't have an instrument for my bardic song, an 'air mandolin' won't suffice."
p963
sI963
S"After critting with a cannon, we can't dump a barrel of gunpowder over the gunner's mate."
p964
sI964
S"Elves aren't marsupials."
p965
sI965
S"Even if we're freezing to death, I won't cut open the half-orc and shove the elf inside him."
p966
sI966
S'Using precog on the personals to find out who puts out on a first date is abusing the power.'
p967
sI967
S'There is no such thing as a Tequila Golem.'
p968
sI968
S"A paladin with a British accent is acceptable. One with a Peter Lorre accent isn't."
p969
sI969
S"When I'm allowed a bunny as a familiar, that doesn't include Ava Fabian."
p970
sI970
S'I will not make a super hero that requires a graphing calculator to create.'
p971
sI971
S'I cannot take the flaw Enemy: Random packs of wild dogs.'
p972
sI972
S'"Threesome" is not a specialty of the seduction skill.'
p973
sI973
S'Shotguns are not a traditional part of Texas funerals.'
p974
sI974
S'If short changed at the Hong Kong deli I will call the manager. Not roll for initiative.'
p975
sI975
S'There is something wrong with a 2nd level Kamikaze.'
p976
sI976
S'I was not issued a flamethrower for my own personal amusement.'
p977
sI977
S'Disable plot device is not a real skill.'
p978
sI978
S'Nowhere in the plan does Franco go in where the others have been.'
p979
sI979
S'Mumus do not appear in the starting equipment list for a reason.'
p980
sI980
S"As a matter of fact, a 90' tall hostile pineapple is much more terrifying than a dragon."
p981
sI981
S'My last wish cannot be for Ragnarok.'
p982
sI982
S'Trailblaze means find a path, not cut down every tree between here and there.'
p983
sI983
S'Elves do not take 1d3 1 minutes for their entire menstrual cycle.'
p984
sI984
S'In the middle of a black ops I cannot moonlight as tech support.'
p985
sI985
S"Even if it isn't in the rules, I have to use the same scale miniature as everybody else."
p986
sI986
S'I cannot switch miniatures between each combat.'
p987
sI987
S"Even if starving, can't suckle the elf chick."
p988
sI988
S'David Bowie cannot cast glitterdust at will. This issue is also closed.'
p989
sI989
S'When asked to describe my character, I can leave out the hickies.'
p990
sI990
S"Even if he botches his medicine roll, I can't sue the medtech for malpractice."
p991
sI991
S'"Kiww the Wabbit" is not a proper viking battlecry.'
p992
sI992
S"The rest of the party would appreciate it if I didn't take Munchhausen Syndrome by Proxy as a flaw."
p993
sI993
S"Even if the rules allow it, I can't empty out the entire castle for a week with just a cherry bomb."
p994
sI994
S'Corporate Pop Whore is not a real prestige class.'
p995
sI995
S'Drakkar Heartgourger is not a proper name for a paladin.'
p996
sI996
S"Dwarves can't take trees as favored enemies."
p997
sI997
S"I can't beat on the drow until he admits his name is Toby."
p998
sI998
S'The script for the Baywatch movie does not cause more Sanity loss than the Necronomicon.'
p999
sI999
S"I can't train squirrel mobs to abuse the grapple rules."
p1000
sI1000
S'I will stop referring to the powergamer as MinMaximus.'
p1001
sI1001
S"No matter how bad the game is going, I won't stradle the table like Slim Pickens riding a bomb."
p1002
sI1002
S'Foam Finger of Death is not a real spell.'
p1003
sI1003
S'I cannot start with an armor class higher than my actual age.'
p1004
sI1004
S'Not permitted to die from essence loss during character creation.'
p1005
sI1005
S"Even if I bought the book at Walmart, I don't get a discount on advantages."
p1006
sI1006
S"If I take the Poison Immunity advantage, that doesn't include Radiation."
p1007
sI1007
S"That whole Expedition to the Barrier Peaks' Dream Sequence. "
p1008
sI1008
S'Texans do not get revolvers as a racial weapon proficiency.'
p1009
sI1009
S"No matter how many points I put into the skill, can't use sword swallowing to parry."
p1010
sI1010
S"Stone Giants don't have heat sinks."
p1011
sI1011
S'Even if we are facing Yuan Ti, my battlecry cannot be "COBRA!"'
p1012
sI1012
S'Note to self: Lightsaberchucks...BAD IDEA'
p1013
sI1013
S'The expressive dance skill is not a substitute for language skills.'
p1014
sI1014
S'I will stop blaming every massacre we come across on Decepticons.'
p1015
sI1015
S'Despite what the rules say, berserking does not improve my aim.'
p1016
sI1016
S'Even if spells are use them or lose them, I will not waste Meteor Swarms on a goblin.'
p1017
sI1017
S"I will not lay siege to Cinderella's Castle."
p1018
sI1018
S'Elves do not get Viking Funerals.'
p1019
sI1019
S'Even if we have more ammo than fuel, I still have to cut down the tree with the chainsaw, not the HMG.'
p1020
sI1020
S"If we have to add a new PC mid-campaign, he doesn't have to pass a drug test first."
p1021
sI1021
S"Can't use the Jedi Mind Trick to convince the stormtroopers the Droids over there are the Droids they are looking for."
p1022
sI1022
S"Can't start the game with 24 hours to live."
p1023
sI1023
S'The bluff skill is no substitute for actually knowing the spell.'
p1024
sI1024
S'Slings make poor thongs. And vice versa.'
p1025
sI1025
S'If I have two cyberarms, they have to be on different sides.'
p1026
sI1026
S'My character cannot gain a level through nepotism.'
p1027
sI1027
S'I will not use the d20 system to test the validity of any Kennedy Assassination theory.'
p1028
sI1028
S'My character has mastery level in singing. I do not.'
p1029
sI1029
S'I will not convert to Eilistraee just so I can watch naked drow chicks getting their groove on.'
p1030
sI1030
S"No matter how much he pisses me off, I will not raise the barbarian's dead mother-in-law."
p1031
sI1031
S"Just because my superhero game has 18 stats and yours only has 3, doesn't mean mine is 6x better."
p1032
sI1032
S'Monofilament does not automatically make the world a better place.'
p1033
sI1033
S"Holding the hand crossbow sideways 'gangsta style' does not add to my intimidate check."
p1034
sI1034
S"Even if I wait for the ninja to jump at me, I can't crucify him with a repeating crossbow in a single round."
p1035
sI1035
S"If at any point in his lifespan my character can clear out every single Cave of Chaos in one single round, he's vetoed."
p1036
sI1036
S"My druid can't summon or change into a skunk. No seriously, it's not allowed in the rulebook."
p1037
sI1037
S'Kangaroos are poor substitutes for taun-tauns.'
p1038
sI1038
S'There is no such thing as a Viking Assisted Suicide.'
p1039
sI1039
S'Jury Summoning I is not a real spell.'
p1040
sI1040
S'I can not name my character anything that was suggested by Tom Servo.'
p1041
sI1041
S"Doesn't matter if I'm just using to spot weld, force lightning still gets me a dark side point."
p1042
sI1042
S'Erasing the compass on the map and redrawing it in reverse does not mean the villain will start building his evil railroad backwards.'
p1043
sI1043
S'Ninjas do not have a hive mind.'
p1044
sI1044
S"No matter how much ammo I start with, I can't impact the total world supply."
p1045
sI1045
S'We will not gut every animal we kill to see if they have treasure inside like in video games.'
p1046
sI1046
S"We can't stabilize the dying villain before we make our escape just in case he was a load bearing villain."
p1047
sI1047
S'If my troll is the smartest character in the party, the entire party is vetoed.'
p1048
sI1048
S'I will not attempt to overdose on Rogaine so I can disguise myself as a wookie.'
p1049
sI1049
S"I can't summon anything in MM4 just so I can take a bathroom break while the DM looks it up."
p1050
sI1050
S"If the weapon has the 3-handed trait, I don't get a sidekick just for the extra hand."
p1051
sI1051
S"As a matter of fact, the high and tight buzz cut doesn't exist in Exalted."
p1052
sI1052
S"I'm not automatically eliminated from the crappy module if I guess the wrong murderer like in Clue. So I should stop making random accusations."
p1053
sI1053
S'I was not raised by a pack of feral Ironclads.'
p1054
sI1054
S'I will call the elf druid by his real impossibly long elf name, and not just Llanowar Leafblower.'
p1055
sI1055
S'I will also not simply refer to the elf druid as that dirty, dirty hippie.'
p1056
sI1056
S'There is no such thing as a Dwarven Battle Perm.'
p1057
sI1057
S'Canadian is not a real language.'
p1058
sI1058
S'When I get to the custom weapons creation section, I will keep turning those pages.'
p1059
sI1059
S"Even if the villain is Lawful Evil, slapping a cease and desist order on him isn't going to work."
p1060
sI1060
S"I will go into the villain's lair and take him out the old fashioned way. Not just wait outside his favorite bar with a rifle."
p1061
sI1061
S'In the middle of a Black Ops I do not have time to put a banana in the exhaust port of their AV-9.'
p1062
sI1062
S"Even if I think of something the Demi-lich isn't immune to, he's immune to it."
p1063
sI1063
S"Even if my character sheet says otherwise, I can't max out the party with Delta class Cyberware immediately after character generation."
p1064
sI1064
S"Even if I can prove at least a half dozen practical uses for it, I can't have a slip and slide for the dungeon crawl."
p1065
sI1065
S"Even if we are playing in the New Republic era, I can't call dibs on Boba Fett's armor."
p1066
sI1066
S"If the GM's wife is in the party, I'm not allowed to hunt anything cute."
p1067
sI1067
S"I do not get to put remote detonation switches into the weapons of any PC's I build them for."
p1068
sI1068
S'I cannot have a handgun that starts out doing more damage than most people have wounds.'
p1069
sI1069
S'I do not have to check before each adventure that my fellow adventurers are not doppelgangers, Cylons or pod people.'
p1070
sI1070
S"Even if we are Womprat hunting, we don't have to dye the wookie fluorescent orange."
p1071
sI1071
S"I will go take out the villain's dungeon the old fashioned way, and not use magic to reroute a river into it instead."
p1072
sI1072
S"After rerouting a river through the villain's lair, I will not pan for gold wherever the river comes out."
p1073
sI1073
S"Just because the game left the rules for stun setting grossly unbalanced doesn't mean I have to take advantage of it."
p1074
sI1074
S"Despite the name, I can't actually wear a cloaker. But I will fail to notice the cloak weighs over a quarter ton."
p1075
sI1075
S"Metal detectors don't automatically find Cylons."
p1076
sI1076
S'When told to dress like a Goth I will make sure with no uncertainty whether they mean black clothes and eyeliner or chainmail and shield.'
p1077
sI1077
S'There is no such thing as a weresaxophonist.'
p1078
sI1078
S"If 48 straight hours of pistol whipping doesn't convince the terrorist to spill his guts, another 48 hours probably won't either."
p1079
sI1079
S'A tattoo gun is not standard equipment in a mapping kit.'
p1080
sI1080
S'The Cryokinetic is forever banned from water balloon fights.'
p1081
sI1081
S"Even if the rules allow it, my sumo wrestler can't take super human attractiveness."
p1082
sI1082
S'There is no such thing as a brothel crawl.'
p1083
sI1083
S'My IRSAn will not use his powers to help fill out wikipedia articles.'
p1084
sI1084
S"My sumo wrestler can't have lap band surgery without affecting his martial arts skills."
p1085
sI1085
S"'Everybody Wang Chung tonight' is not an acceptable use of the Mass Suggestion spell."
p1086
sI1086
S"Tornadoes don't have hit points."
p1087
sI1087
S"Even if I take twice as long, that doesn't mean I can take 40."
p1088
sI1088
S'I cannot try and throw large blunt objects at malkavians, kobolds or kender. Or their players.'
p1089
sI1089
S"Even if the game is a crappy rip-off of World of Warcraft, my character can't speak in Leet."
p1090
sI1090
S"Even if I roll a natural 20, I can't jump the grand cannon on a stock steam roller."
p1091
sI1091
S'In the middle of a Black Ops, if a character dies I will not disavow knowledge of him until after the mission is over.'
p1092
sI1092
S"If the battle goes for 20 rounds, we don't have to stop and wait for the zamboni guy to clean up the battlefield."
p1093
sI1093
S"I will not tell the rookies they can roll down their Y-Wing's windows."
p1094
sI1094
S"My wizard does not need to shout out the name of what he's summoning every time he picks a creature."
p1095
sI1095
S'Anything short of adamantine full plate is not considered light armor for dwarves.'
p1096
sI1096
S"In the middle of a Black Ops I can't start a major Corpwar just because I'm bored stiff with the current run."
p1097
sI1097
S"Even if he used INT as a dump stat, I don't have to carve 'this end towards enemy' on the barbarian's axe blade."
p1098
sI1098
S"If I'm in an assault mech, bump drafting is discouraged."
p1099
sI1099
S"After a successful Black Ops, before I'm paid I will not immediately adopt a dozen children for the tax breaks."
p1100
sI1100
S'I cannot wish that someone else was an Oscar Meyer weiner.'
p1101
sI1101
S'I will not cut the vault guards in on the haul instead of fighting them.'
p1102
sI1102
S"1980's break dancing moves have their place. In front of the Vodacce prince is not one of them."
p1103
sI1103
S"Just because I was paid in advance doesn't mean I can let the incompetent expedition leader die."
p1104
sI1104
S'There is a limit to how much innuendo I can fit into one combat round.'
p1105
sI1105
S'Even if it is just my character speaking, I will not claim Texas was stolen from Mexico. I will live longer that way.'
p1106
sI1106
S'I cannot put Nodens on speed dial.'
p1107
sI1107
S'I will not attempt to clear out the dungeon using only Bangalore torpedoes.'
p1108
sI1108
S'Picking his pocket means more than just turning him upside down and shaking him vigorously.'
p1109
sI1109
S'I will not do anything that Bilbo Baggins hates.'
p1110
sI1110
S"Even if I have enough, putting silencers on my minigun doesn't work."
p1111
sI1111
S'There is no such thing as a Magic Murder Bag of Holding.'
p1112
sI1112
S'I will stop referring to the Eladrin as just the Elf Mk II.'
p1113
sI1113
S'I will not shoot vampires in the chest with a large pistol just so they have to explain the embarrassing sucking chest wound.'
p1114
sI1114
S"I will not take a phobia of anything that doesn't exist in the game world."
p1115
sI1115
S"If I have an ability that lets me alter minor aspects of my appearance, that doesn't include girth."
p1116
sI1116
S'Add Bulldozers to the list of things vampires are allergic to.'
p1117
sI1117
S"Can't strangle a werewolf with a roll of Kodak film, no matter what we all know it's made out of."
p1118
sI1118
S"In the middle of a black ops I will not use up all the claymores just because I don't want to take them back with me."
p1119
sI1119
S'I cannot have my mercy surgically removed.'
p1120
sI1120
S"Even if I'm in charge I can't order the Assault Lance to perform West Side Story dance routines."
p1121
sI1121
S"If given a Holy Avenger sword, I can't melt it down and reforge it into a weapon my paladin actually uses."
p1122
sI1122
S"Even if it still give a combat bonus to everybody else, I can't just stand there and read a comic book behind the villain."
p1123
sI1123
S"In the middle of a black ops I can't call my girlfriend to remind her to pick up some Chinese on her way home."
p1124
sI1124
S'I will leave out mating rituals when presenting a cultural exchange with diplomatic ambassadors.'
p1125
sI1125
S"Letting the Red Shirt guard the plane is really frowned upon as it doesn't leave anybody to sacrifice to the Shoggoths."
p1126
sI1126
S'Cannot start the campaign on fire.'
p1127
sI1127
S'Will not start all my skills at 89% just so I get massive SAN boosts early.'
p1128
sI1128
S'I cannot RickRoll people with any video that increases their Mythos Lore.'
p1129
sI1129
S'I will refrain from casting Dimension Jump and Magnificent Mansion on every police box we pass.'
p1130
sI1130
S'I cannot wish we were playing the previous edition of the game.'
p1131
sI1131
S"Summoning a Water Elemental right above the Fire Elemental doesn't work."
p1132
sI1132
S'There will be no more debating how much XP Mr. Tumnus would be worth.'
p1133
sI1133
S'I cannot be the Bizarro version of another player.'
p1134
sI1134
S"Nowhere in my barbarian's description will I include the word 'Jaunty'"
p1135
sI1135
S'My Eshu does not get bonus frequent flyer miles automatically during character generation.'
p1136
sI1136
S"Doesn't matter how big we make it, a pit trap isn't going to take out the Tarrasque."
p1137
sI1137
S'I have to go into the dungeon, not just send in dozens of summoned creatures every morning.'
p1138
sI1138
S"Fireballs don't have a non-lethal option. I will ponder this after I've cast one at that guy we needed alive."
p1139
sI1139
S'My weapon is a 3 Flaming Flail. Not my Great Balls of Fire.'
p1140
sI1140
S'I will not use a portable hole to cheat at golf.'
p1141
sI1141
S"In the middle of a Black Ops I will not look at the target's HR files to see if they have better benefits."
p1142
sI1142
S"I will not use the mage's Staff of Wizardry in lieu of a pool cue."
p1143
sI1143
S"Torching the forest doesn't get me any XP for anything inside the forest."
p1144
sI1144
S'I cannot have any gun that lets me kill the villain without being in at least an adjacent county.'
p1145
sI1145
S'A 2nd level commoner is not twice as common as a 1st level commoner.'
p1146
sI1146
S"If we don't have a thief, I can't call AAA to slim jim the dungeon entry door."
p1147
sI1147
S"I will lick the Rodian's antennae and stick him to the wall while he sleeps."
p1148
sI1148
S'No matter how long his speech is, my sniper will not shoot the speaker introducing the target.'
p1149
sI1149
S"During the psi-jump my neutral can't do mean things to the psions while they are tripping."
p1150
sI1150
S'I will not try to feed the Qin extremely salty food to see if he melts.'
p1151
sI1151
S'Our mission is to rescue the princess. Not to bring Sexy back.'
p1152
sI1152
S"Even if given detailed instructions on pages 50-51, can't take Cloud City on a joy ride."
p1153
sI1153
S"I can't wish to change my vote on what module we're playing."
p1154
sI1154
S'Bass line is not an acceptable perform skill specialty.'
p1155
sI1155
S'Thri-kreen do not have the flaw Obsession: Pretty lights'
p1156
sI1156
S'The party leader is not the one that looks best in a chainmail bikini.'
p1157
sI1157
S"I can't 'make it rain' before the invention of paper currency."
p1158
sI1158
S"If I make a cowboy with the young ?un flaw I can't name him Sioux."
p1159
sI1159
S"If I don't have any points in medtech, I can't try faith healing."
p1160
sI1160
S'We will not end every adventure with a public service announcement.'
p1161
sI1161
S"If my character requires the GM to memorize the rules for siege warfare, he's vetoed."
p1162
sI1162
S"We can't trade the ranger for a giant, pirate or padre."
p1163
sI1163
S'I am forbidden from using more than ten sourcebooks to make one character.'
p1164
sI1164
S'I will wait for the GM to finish his incredibly complicated riddle before answering correctly.'
p1165
sI1165
S"I can't wish for somebody to publish the rules for gnomes or bards."
p1166
sI1166
S'The time machine is not for collecting autographs.'
p1167
sI1167
S'I can stop rolling at 7x dead.'
p1168
sI1168
S'I am forbidden from doing anything that makes a passerby flinch.'
p1169
sI1169
S"If even the rules allow it, I can't have my uneducated peasant start with every known language."
p1170
sI1170
S'If the rules contradict Isaac Newton, Newton wins.'
p1171
sI1171
S"I will not send the villain a fake message his mother is coming then attack him while he's cleaning."
p1172
sI1172
S"My brooding costumed vigilante can't take the flaw Dark Secret: Well Adjusted to Society."
p1173
sI1173
S'Despite overwhelming evidence to the contrary, Dick Clark is not Shemsu-Heru.'
p1174
sI1174
S"Even if I spend the points, I can't take the U.S.S. Montana as an ally."
p1175
sI1175
S'My knight will not buy a Shetland pony just so he can use his lance underground.'
p1176
sI1176
S'I will remember the spiked chain cheesemonster is allergic to the improved sunder feat.'
p1177
sI1177
S"I will stop asking NPC's how much XP they are worth."
p1178
sI1178
S'The seduction skill does not have a to hit on roll.'
p1179
sI1179
S"No matter how well I make my bluff check, the Star Destroyer crew isn't going to believe I'm the new captain."
p1180
sI1180
S"Dressing up the wizard as the monk still won't stop monsters from appearing beside him and attacking him first."
p1181
sI1181
S'When asked what game we want to LARP, Frogger is not an option.'
p1182
sI1182
S'Chewing hoagga leaves does not make me a goddammed sexual rhinodon.'
p1183
sI1183
S"No it won't help if we put a silencer on the bazooka."
p1184
sI1184
S"When approached by a famous historical figure, I can assume he's a time traveler and not a zombie."
p1185
sI1185
S'Paladins do too urinate.'
p1186
sI1186
S"In the middle of a black ops my buttocks is forbidden from making contact with the target's copy machine."
p1187
sI1187
S"It's okay to feed the Ewok after midnight."
p1188
sI1188
S'Flash Bangs are not to be handed out to trick or treaters.'
p1189
sI1189
S'A stagehand does not get a better sneak bonus than ninjas.'
p1190
sI1190
S'I will not Conga Line the Pattern.'
p1191
sI1191
S'Super powers that are only useful to art majors are vetoed.'
p1192
sI1192
S'My last wish cannot be for a cage match between Cthulhu, Godzilla, Galactus and the Tarrasque.'
p1193
sI1193
S'I will avoid making wishes that locks the game in an infinite time loop.'
p1194
sI1194
S'I will not go to FTL just to avoid the red lights.'
p1195
sI1195
S'I will not min/max the appraise skill just to clean up on The Price is Right.'
p1196
sI1196
S"Even if we cleared it out, we can't turn White Plume Mountain into a theme park."
p1197
sI1197
S"Even if the rules allow it, I can't put a spinal mounted weapon on a bicycle."
p1198
sI1198
S'I cannot have a destroid that requires me to take the ally advantage two dozen times just to crew it.'
p1199
sI1199
S'Stan Lee does not have to make a cameo appearance in every single adventure.'
p1200
sI1200
S"Even if I make it out of one continuous design, a dracheneisen castle doesn't count as one object."
p1201
sI1201
S"'Just blow them out the airlock' is not a backup First Contact Protocol."
p1202
sI1202
S"Even if it's totally feasible, I can't indefinitely stall our rivals with a bureaucracy check. "
p1203
sI1203
S"My panzerhand doesn't get a vote."
p1204
sI1204
S'Smartass is not a character role.'
p1205
sI1205
S"I can't have any feat in the main book if the feat is written in pencil."
p1206
sI1206
S"In the middle of a Black Ops I can't download several thousands songs on the target's computer and then call the RIAA."
p1207
sI1207
S"There is no such thing as 'ambiguously elven'"
p1208
sI1208
S"Even if he is Chaotic Evil, I can't turn state's evidence against a fellow party member."
p1209
sI1209
S"Even if the boss monster has 100% magic resistance, my wizard can't go catch a movie."
p1210
sI1210
S'I will keep rolling until I get a superpower I can actually use.'
p1211
sI1211
S'I cannot have any gun that has an NPC Only Trigger Guard.'
p1212
sI1212
S"Even if they'd never suspect it, my Jedi can't have a flamethrower."
p1213
sI1213
S"No, we can't see if the party can beat Temple of Elemental Evil in under an hour."
p1214
sI1214
S'I will stop trying to put the Halfling in a diabetic coma.'
p1215
sI1215
S"If I'm just a few XP from 16th level, I can't just cast fireballs at random forests until I hit something."
p1216
sI1216
S"I can't have a gun that treats buildings as light cover."
p1217
sI1217
S"No matter what the dice just said, I didn't kill the villain with the first shot of the combat."
p1218
sI1218
S'Elves do not have to go to the bathroom in groups.'
p1219
sI1219
S'Penguins will not fit in the standard ether jar.'
p1220
sI1220
S"The Vulcan neck pinch doesn't work in campaigns without Vulcans."
p1221
sI1221
S"Just because my sword is intelligent doesn't mean he can do my math homework for me."
p1222
sI1222
S"It's a strangehold. Not an Ogryn neck pinch."
p1223
sI1223
S'Ussuran women are not instantly recognizable by their beards.'
p1224
sI1224
S"Even if the rules allow it, I can't hit Stone with the Stone Cold Stunner."
p1225
sI1225
S"Having more beer than the enemy doesn't give me a morale bonus for the mass combat chart."
p1226
sI1226
S'No feat allows me to open beer cans with my pects.'
p1227
sI1227
S'The Death Star does not need a cabin boy.'
p1228
sI1228
S"'Overused cliche' is not an appropriate favored enemy."
p1229
sI1229
S"I cannot gain Drama Dice in games I'm not actually in."
p1230
sI1230
S"It's okay if you name your Kindred Alucard. But I still can't name my Garou Namflow."
p1231
sI1231
S"No matter how low Orc intelligence, they aren't going to fall for a large wooden horse outside the gates of Mordor."
p1232
sI1232
S"'Head, Heart, Run' is not our posse's motto."
p1233
sI1233
S"No matter how much sense it makes, we can't paint the Glitterboy a camo scheme."
p1234
sI1234
S"My first act as XO can't be a mutiny."
p1235
sI1235
S'Not allowed to use the replicator and transporter to fill the Bird of Prey with Jello.'
p1236
sI1236
S"I can't take Invisibility to Detect Invisibility."
p1237
sI1237
S"My fighter can't use the Monster Manual as a To-Do list."
p1238
sI1238
S'No making up Patron Saints.'
p1239
sI1239
S'No part of the adventure is clothing optional.'
p1240
sI1240
S"No matter what the dice say, I didn't just seduce Chun Li. And Cammy."
p1241
sI1241
S'It takes more than one pick pocket roll to totally derail the campaign.'
p1242
sI1242
S"I can't wish that somebody competent wrote this module."
p1243
sI1243
S"Even if the game is dreadfully repetitive, our party is motto can't be 'Wash, Rinse, Repeat'"
p1244
sI1244
S"I will not point out the Drow Matron would make more money as an exotic dancer. Even if it's true."
p1245
sI1245
S'Must at least pay lip service to the metaplot.'
p1246
sI1246
S"It's not possible to stampede dwarves."
p1247
sI1247
S'When told to pick a published superhero to play, Johnny Cash is not allowed. Paul Stanley is perfectly acceptable.'
p1248
sI1248
S'There is no such thing as a strap on beard.'
p1249
sI1249
S"It doesn't matter if he took the large advantage, we aren't using the Ussuran as ballast."
p1250
sI1250
S'I will address the other PC as Lord Tyrion, Eldritch Knight of the Winter Court. And not just as the Sidhe Male.'
p1251
sI1251
S'Even the rules disagree, my character can still drown.'
p1252
sI1252
S'I cannot take the following as my favored enemies: Southpaws, Mother-in-law or Keynesian Economists.'
p1253
sI1253
S"Even if I'm being shanghaied into playing a rather crappy campaign, can't use Constitution as a dump stat."
p1254
sI1254
S"We aren't luring the Arasaka agents out of the safehouse by making ice cream truck noises."
p1255
sI1255
S'Splitting the atom at will is not an acceptable super power.'
p1256
sI1256
S"'Ignore the metaplot' is also not an acceptable super power."
p1257
sI1257
S'No, the answer to the problem is not to make a gatling gun out of bazookas.'
p1258
sI1258
S"Can't base my character off a smurf."
p1259
sI1259
S'Even if I could base my character off a smurf, Ghurka Smurf was not a real smurf.'
p1260
sI1260
S"No matter what the dice say, my renaissance inventor didn't just invent manned space flight."
p1261
sI1261
S"If the villain's three room lair holds over one hundred brutes, can't just tip off the Fire Marshal."
p1262
sI1262
S'No rerouting the roller coaster through the Umbra.'
p1263
sI1263
S"Can't blame it on my gun."
p1264
sI1264
S'Will not retrofit my Federation Starship with fuses.'
p1265
sI1265
S"Heavy bolters don't come with a pistol grip."
p1266
sI1266
S'I will stop referring to my rogue as a freelance subterranean locksmith.'
p1267
sI1267
S'The lockpicking kit must be more than a sawed off shotgun.'
p1268
sI1268
S'Dwarves are physically incapable of performed the Dance of the Seven Veils.'
p1269
sI1269
S"Even if the guy I based my character off was famous for doing it, I can't kill eight guys with one bullet."
p1270
sI1270
S'Weapon Focus: Nukes is not a real feat.'
p1271
sI1271
S"There will not be any sex in other player's battlemechs."
p1272
sI1272
S"My Paladin can be charged with sexual harassment if he doesn't watch exactly where he lays on hands."
p1273
sI1273
S'Any character that makes a seasoned Rifts player flinch is vetoed, and shall never be spoken of again.'
p1274
sI1274
S"I can't check the Soul Forge in as baggage."
p1275
sI1275
S'Will not reanimate dead familiars just to keep them around for sentimental reasons.'
p1276
sI1276
S'Freeing slaves out of justice is good. Out of spite, not so much. '
p1277
sI1277
S"No I can't have an H. R. Giger Counter."
p1278
sI1278
S'An elf wardancer chick in nothing but body paint is totally hot. A Vesten berserker in nothing but body paint not so much.'
p1279
sI1279
S"Basing characters off gestalt of historical characters is fine unless it's Miyamoto Musashi and the mom from What's Happening."
p1280
sI1280
S'Gold dragons do not conduct electricity better than other dragons.'
p1281
sI1281
S'The two primary types of Halfling are not flathead and Phillips.'
p1282
sI1282
S'My mad scientist does not get to divide the party into control and test groups.'
p1283
sI1283
S'For the last time, the elf wears the maid disguise and the troll wears the bouncer disguise.'
p1284
sI1284
S'There is no such thing as a Gnomish Pygmy Seeing Eye Rhino either.'
p1285
sI1285
S"Just because I can play a charismatic Vestenmannavnjar missionary cleric, doesn't mean I should."
p1286
sI1286
S'My Buddhist monk will lose the cockney accent.'
p1287
sI1287
S"Let's not taunt the minotaur with 'How appropriate, you fight like a cow'"
p1288
sI1288
S'I will spend my martial arts technique points on things other than blocking and running away.'
p1289
sI1289
S"Even if the rules allow it, a laser sight doesn't add to my chaingun's accuracy. Yes, even if I have one on each barrel."
p1290
sI1290
S'I will refrain to take character roles that the game forgot to make any rules for.'
p1291
sI1291
S"Just because I'm playing an anthropomorphic Emperor Marmoset doesn't give me the noble advantage for free."
p1292
sI1292
S"Cannot bribe the target's HR director to start casual Fridays just to make our upcoming Black Ops easier that week."
p1293
sI1293
S"I can't avoid plot mandated ambushes no matter how hard I try."
p1294
sI1294
S"No I can't have a magelock mini-slugger."
p1295
sI1295
S'I will not spend all my freebie points buying quantakinetic auxiliary modes.'
p1296
sI1296
S"No we can't weld the Star Destroyer's bridge shut."
p1297
sI1297
S'There is a 100xp penalty every time we remind the GM of the Bionic Six.'
p1298
sI1298
S"If the adventure includes the birth of a god, we still can't file for holiday pay that day."
p1299
sI1299
S"In the middle of a Black Ops I can't compose an offensive joke on the target CEO's email and CC the entire company."
p1300
sI1300
S"If the GM can't lift all the GURPS books needed to run my character, he's vetoed."
p1301
sI1301
S"The 10' pole in the starting equipment list cannot support the weight of an exotic dancer."
p1302
sI1302
S'Scorched Earth Day is not a holiday, even in Cyberpunk.'
p1303
sI1303
S"Nothing in Victoria's Secret catalog is available in Dracheneisen."
p1304
sI1304
S'Even if they are better in combat according to character generation, the USMC frowns on octogenarians in front line combat.'
p1305
sI1305
S'No amount of background will allow me to name the character Biff Buttoms.'
p1306
sI1306
S'State Troopers are immune to the effects of the Delirium, so I need to find another way out of that speeding ticket.'
p1307
sI1307
S"No matter how well I make my fashion roll, L'Empereur is not going to the ball dressed in a Catholic school girl's uniform."
p1308
sI1308
S'Everybody was not gun-fu fighting.'
p1309
sI1309
S"Even if my character is Canadian, that doesn't mean he can take a 1.524 meter free step."
p1310
sI1310
S"I will pick my character's girlfriend based on something more than how much fire support she can provide."
p1311
sI1311
S'I will not one shot an Eisenfurst.'
p1312
sI1312
S'The plan will not continue until the GM finds out who Zan Tabak is.'
p1313
sI1313
S"I will do nothing that tarnishes Hello Kitty's memory."
p1314
sI1314
S'Gravity defying breasts, while impressive, do not count as a super power.'
p1315
sI1315
S"Even if my character is Orthodox Jewish, I will check other characters' pulse before trying to bury them."
p1316
sI1316
S"A NASCAR pit crew cannot repair all my vehicle's damage in one round."
p1317
sI1317
S"My character will refrain from appearing with Hitler in any history books. Especially if I'm chasing him with a wheat thresher."
p1318
sI1318
S"Fauner Posen's Boy Toy is not technically a position at court."
p1319
sI1319
S"I will only use the module's suggested tactics to stop the ground assault and ignore the squadron of Y-Wings 100 meters away."
p1320
sI1320
S'There is no such thing as a Ballista-o-Gram.'
p1321
sI1321
S'I will not accuse the Traveler News Service of liberal bias.'
p1322
sI1322
S'The Ewok does not appreciate the giant hamster wheel we put in his quarters. Ingrate.'
p1323
sI1323
S'I will not spend my entire Muster bonus on lottery tickets.'
p1324
sI1324
S"If another player took the Disadvantage: Stutters, I can't play a K'Kree."
p1325
sI1325
S'Black and Decker does not make droids either.'
p1326
sI1326
S"I will not blow all my points on extra limbs just so I can play the superhero 'Millipede Man'"
p1327
sI1327
S"Just because the Great Race of Yith's effect on sanity is minimal, doesn't mean I should invite them over for dinner with the folks."
p1328
sI1328
S'The very concept of a Hutt lap dancer will earn me a dark side point.'
p1329
sI1329
S'The M203 is not for long range bocce ball.'
p1330
sI1330
S'Getting someone to spot for me is not going to give me a bonus on a strength check.'
p1331
sI1331
S'I will not hex someone into looking like a pinata. Especially in Mexico City.'
p1332
sI1332
S'Even if silence is required for the entire adventure, we are not naming the Black Ops Operation: Mimecrime.'
p1333
sI1333
S'I will tell the noob the game is about post nuclear Europe and not love struck vampires before we start.'
p1334
sI1334
S'You cannot tell if somebody is a power gamer by the faint smell of Gouda.'
p1335
sI1335
S'I can not filibuster in the middle of my dying speech to buy the cleric more time.'
p1336
sI1336
S'Even if we are told to pick a manly name for the game, Genocidicles is a bit much.'
p1337
sI1337
S"Can't lure the Bastet into an ambush by turning on the can opener."
p1338
sI1338
S'Jack Lalanne: Wrong type of Juicer.'
p1339
sI1339
S'If unsure of what side of the road we drive on, the middle of the road is not a healthy compromise.'
p1340
sI1340
S'Brute squads make poor bridesmaids. The reverse is not necessarily true.'
p1341
sI1341
S'Even if the rules allow it, I cannot become famous for not being famous.'
p1342
sI1342
S'There is no god of Wombats, no matter how much I pray.'
p1343
sI1343
S"If I have to explain to the halfling's sister why we dressed him like a raccoon, we're all in trouble."
p1344
sI1344
S"No matter how cool it would be, we can't use the time machine to loan Ike a few A-10 squadrons for D-Day."
p1345
sI1345
S"I don't get a drama die just because the GM pees."
p1346
sI1346
S'I will not waste wishes on professional sporting events.'
p1347
sI1347
S'Hooking up with the gamer chick the Storyteller was angling for gets me banned from the game.'
p1348
sI1348
S"When attempting to lure the giant to sleep with a bardic lullaby, I will leave out the lyric 'so we can kill you.'"
p1349
sI1349
S"I will not program the medical droid for 'aggressive dentistry.'"
p1350
sI1350
S'I will not dare the wage mage into trying to summon a class 20 spirit.'
p1351
sI1351
S'Guardian mode is not just for flipping people the bird in the middle of battle.'
p1352
sI1352
S"Even if we are issued a nuke, I'm not allowed to touch it."
p1353
sI1353
S'I will stop trying to get a reality TV show for our Black Ops team.'
p1354
sI1354
S'We are not going to stall 10,000 Uruk-Hai with a fake tollbooth.'
p1355
sI1355
S"Pointing out the massive plothole in the villain's plan is not going to stop her from attacking."
p1356
sI1356
S"Before we start, let's make sure whether everybody blows up if I shoot a shield with a lasgun."
p1357
sI1357
S'Preliminary saturation carpet bombing is not automatically Plan A.'
p1358
sI1358
S"Even if I only get to swing a sword once per minute, I can't stop to smoke between attacks."
p1359
sI1359
S"I can't call my gun by a stupid nickname, even if it's the one that the game suggested."
p1360
sI1360
S"Woodchippers, while useful, aren't normal gear for a Black Ops."
p1361
sI1361
S'I will not tell the new players gelatinous cubes come in a variety of yummy flavors.'
p1362
sI1362
S'The cleric is not tax exempt.'
p1363
sI1363
S'No matter how much fun, we are not retrofitting a tank with jumpjets.'
p1364
sI1364
S'I cannot mint my own currency.'
p1365
sI1365
S"Just because the make a miniature with that ability, doesn't mean I can take that ability."
p1366
sI1366
S'I will not use the mass suggestion spell to make the elf babes to make out.'
p1367
sI1367
S"Gnomes are not nature's tripods."
p1368
sI1368
S'Dwarves do not groom themselves like cats. Or baboons.'
p1369
sI1369
S'Elves do to have nipples.'
p1370
sI1370
S'Halflings are not used as currency.'
p1371
sI1371
S'"Biggio leans into pitch" is not a real kung fu maneuver.'
p1372
sI1372
S'Even if the rules allow it, I cannot have a monofilament sledgehammer.'
p1373
sI1373
S"If we can't fit the droid in the freighter, I can't play him."
p1374
sI1374
S"No matter I well I make the animal handling roll, I can't break in a Juggernaught of Khorne."
p1375
sI1375
S'Setting Jawas on fire with a magnifying glass is an automatic dark side point.'
p1376
sI1376
S'Motorcycle tires will cause aggravated wounds on a case by case basis.'
p1377
sI1377
S'No feat affects hang time.'
p1378
sI1378
S'We will limit the total amount of conversation on the topic of "Hot Gnome on Gnome action."'
p1379
sI1379
S'I will not threaten to glue the old rules for gnomes over the new rules for Elves Mk II.'
p1380
sI1380
S'Even if the rules allow it, I cannot disarm someone in melee with a longbow.'
p1381
sI1381
S'I will just not dump the vampire in the Umbra and call it a day.'
p1382
sI1382
S"Growing a goatee will not give me a bonus for sneaking into the villain's lair."
p1383
sI1383
S'Portable Plothole is not a real magic item.'
p1384
sI1384
S'I will not start a Ponzi scheme involving the entire party.'
p1385
sI1385
S"Even if I couldn't attend the session when everything went to hell, it's still my fault."
p1386
sI1386
S'The Stanley Cup does not have the same power as the Holy Grail, even on Canadians.'
p1387
sI1387
S"The MMORPG convert doesn't actually have to role play in his first game."
p1388
sI1388
S'Characters wanting to join the party do not have to undergo the Flash Gordon tree monster ceremony.'
p1389
sI1389
S'I cannot have a palanquin in my starting gear.'
p1390
sI1390
S'Having a reputation for having a reputation does not grant me more reputation.'
p1391
sI1391
S'I will quit hogging the legend chips.'
p1392
sI1392
S'No digging out all the bullets in my character and reusing them.'
p1393
sI1393
S'No using the grapple rules to change the course of history.'
p1394
sI1394
S'I will not take on the entire dungeon using only one body part to attack.'
p1395
sI1395
S'Eldar really hate it when you greet them with "Live long and prosper"'
p1396
sI1396
S"No matter his condition, we aren't selling the villain's corpse as modern art."
p1397
sI1397
S'Count on a back up villain if we ace the first one in two rounds without damage.'
p1398
sI1398
S"I will not give my preteen kids my work number, especially if I'm on a Black Ops."
p1399
sI1399
S"The Monkey Grip feat doesn't have anything to do with gripping monkeys."
p1400
sI1400
S"Winona Ryder's bare breasts are not an acceptable weakness for my super hero."
p1401
sI1401
S'I will stop shooting at natural disasters.'
p1402
sI1402
S'No spending all my starting gold on just a loincloth.'
p1403
sI1403
S"Can't use dominate to make vampires forget to change their clocks for Daylight Savings Time."
p1404
sI1404
S'I will not spoil the adventure\'s mandatory ambush by using the cheesy tactic of a "scout".'
p1405
sI1405
S'It\'s obvious I\'m just playing a skald so I can sing "Bjeorning, Bjoerning, Disco Inferno"'
p1406
sI1406
S'The primary dwarf subraces are Sedimentary, Igneous and Metamorphic.'
p1407
sI1407
S'I will not vote to play a game that has needed a rules decision from an economist.'
p1408
sI1408
S'Even if the rules allow it, I cannot fence with a katana.'
p1409
sI1409
S"I can't have a skill if the rules say I can't have, even if the rules say I'm also good at it."
p1410
sI1410
S"Bleaching the drow won't help."
p1411
sI1411
S'Despite what the rules say, bobsledding through the Vatican is much harder than it looks.'
p1412
sI1412
S"I will not make the DM break out the siege rules until I'm at least second level."
p1413
sI1413
S"Even if the dungeon has only one exit, can't just starve the villain out."
p1414
sI1414
S'A Black Ops is not the appropriate place to declare my candidacy for mayor.'
p1415
sI1415
S'Carpet bombing is not an appropriate specialization for a starting character.'
p1416
sI1416
S"The guy with the meltagun doesn't automatically have to carry the popcorn."
p1417
sI1417
S'I do not have time in the Black Ops to play Tetris with the building lights.'
p1418
sI1418
S'The Elvish language is not just English with a hell of a lot of lisping.'
p1419
sI1419
S'I cannot convert to Scottish just for tax purposes.'
p1420
sI1420
S'Doing 50 in a 45 does not cause an alignment check for the paladin.'
p1421
sI1421
S"Gods don't tap out."
p1422
sI1422
S"Montaigne aren't required to surrender after the second turn."
p1423
sI1423
S"Eisenfurst Wishce didn't appreciate the lap dance."
p1424
sI1424
S"I will keep the fact the king's heraldry looks like a ferret in need of the Heimlich Maneuver to myself."
p1425
sI1425
S'Lying about benefits being cut are not going make the guards too disgruntled to fight back later.'
p1426
sI1426
S'I am not "He who must not be named only in passing."'
p1427
sI1427
S'It is not a race to 0 SAN.'
p1428
sI1428
S'No spending half the game session seeing what rhymes with Nyarlathotep.'
p1429
sI1429
S'Even if I did manage to work all the lyrics to 22 Acacia Avenue in character in the game, no bonus XP.'
p1430
sI1430
S"If the party goes out like 300, that's cool. Thelma and Louise not so much."
p1431
sI1431
S"When the DM sobers up, my paladin's flumph mount is as good as dead."
p1432
sI1432
S'Using my prior knowledge of the adventure to force the game along while encouraged, is discouraged.'
p1433
sI1433
S'Zentradi are not good eating.'
p1434
sI1434
S'Emergency supplies are not for childish pranks.'
p1435
sI1435
S'The "Dibs" system is not a recognized method of promotion in the Ordo Malleus.'
p1436
sI1436
S'In case of premature termination, the dungeon boss has an identical twin brother on standby.'
p1437
sI1437
S'High recoil guns and roller skates are not an accepted method of transportation.'
p1438
sI1438
S"You can't find true names in a phone book."
p1439
sI1439
S"If the top floor is too well defended, can't just blow off the next to top floor."
p1440
sI1440
S"Can't start the game with echolocation."
p1441
sI1441
S'I will not wait until the first combat to tell the new guy that the lower his AC the better.'
p1442
sI1442
S"In the middle of a Black Ops I don't have time to elope."
p1443
sI1443
S'Wizards do not have to save against carpal tunnel syndrome.'
p1444
sI1444
S"My Ally advantage and Arch Enemy flaw can't both represent the same person."
p1445
sI1445
S"If I take a Buddhist monk I get lots of combat bonuses that I can't use without violating my religion."
p1446
sI1446
S"Even if the rules allow it, can't catch bullets with my pects."
p1447
sI1447
S'My Bard will not take a trombone just so he can attack and use his bard song at the same time.'
p1448
sI1448
S'No such thing as preemptive last rites.'
p1449
sI1449
S'Any plan that would quickly, logically and safely defeat the module early is doomed to failure.'
p1450
sI1450
S'Cannot summon an elemental out of any material that only exists in a laboratory environment.'
p1451
sI1451
S'Cannot name my Droid WEG-D6'
p1452
sI1452
S"Despite it's phenomenal success rate, a multi-melta is not the solution to all my problems."
p1453
sI1453
S'When the dwarf has an idea, no making the "He\'s drunk" motion behind his back.'
p1454
sI1454
S'The paladin does not appreciate us painting his dire tiger green and orange.'
p1455
sI1455
S'Like a cow who goes to the well to often, I will stop speaking only in metaphors.'
p1456
sI1456
S'Will not blow all my skill points on just ballroom dances.'
p1457
sI1457
S'I will remember the Japanese response to uncomfortable situations is to giggle, not a kick in the kiwis.'
p1458
sI1458
S"The ability to mimic other people's luck powers does not make me a karma chameleon."
p1459
sI1459
S"Even if the game is set in 1912, the female characters get a vote on the party's action."
p1460
sI1460
S"Even if the rules allow it, can't fish with a flamethrower."
p1461
sI1461
S'I will not insist on playing a LAM pilot just to see if the Robotech lawyers were really serious.'
p1462
sI1462
S'Dwarves do not have the racial ability to merge into a larger, more powerful dwarf.'
p1463
sI1463
S'I will not take Resources 0 and Status 5 and just confiscate money as I need it.'
p1464
sI1464
S'Cannot use the requisition skill to get a beach house in the Virgin islands, even if Congress can.'
p1465
sI1465
S'My sideburns cannot earn their own fear rating.'
p1466
sI1466
S'I must sing my kids to sleep before the black ops.'
p1467
sI1467
S"I will not sing other characters' kids to sleep before, during or after the black ops."
p1468
sI1468
S'None of the Summon Animal spells will get me the drummer from the Muppets.'
p1469
sI1469
S'No crossclassing just to get all the different animal sidekicks.'
p1470
sI1470
S'Will not break it to the other player her 3 1/2\' elf is not taller than my 3\'6" tall gnome.'
p1471
sI1471
S'The party will not enter into a tontine, that just encourages the evil players.'
p1472
sI1472
S"No matter what the rules say, I can't chase the villain around the map indefinately."
p1473
sI1473
S"When I'm told to get an alias, they didn't mean that chick with the azure bonds."
p1474
sI1474
S'The concept of puberty is not alien to the elves.'
p1475
sI1475
S'There is more to playing a Finn than cellphones, reindeer and sniper rifles.'
p1476
sI1476
S"Even if I have a salient point, I won't call the Rush Limbaugh show in the middle of a Black Ops."
p1477
sI1477
S"If I'm playing an alien, I can't have alkaline for blood."
p1478
sI1478
S"Burning Orb spell doesn't cause jock itch."
p1479
sI1479
S"Using the time machine to put 'W' at the front of the alphabet is silly."
p1480
sI1480
S'I will not add the restriction "only to cook eggs" to any of my super powers.'
p1481
sI1481
S'The Island of Small Breasted Fantasy Females does not exist.'
p1482
sI1482
S'Even if Detroit can do it, I can\'t add the trait "Randomly bursts into flame" to my car.'
p1483
sI1483
S'There is more to stopping a zombie horde than punji pits.'
p1484
sI1484
S"Just because I can, doesn't mean I should drop a house on the witch."
p1485
sI1485
S'No amounts of dots in fashion will let me use my bio-varg for formal wear.'
p1486
sI1486
S'I cannot convince the entire party to play Squats.'
p1487
sI1487
S"I cannot take a sidekick if all he's gonna do is trail us with a high powered rifle."
p1488
sI1488
S'Dropping a tree on the lich creates more rules problems that its worth.'
p1489
sI1489
S'My bard will not stop every passing minstrel for a round of Dueling Banjos.'
p1490
sI1490
S'I will not use the ventriloquism skill to deliver bad news to the Emperor.'
p1491
sI1491
S"Even if the rules allow it, can't add the High Speed Pursuit Option to a steamroller."
p1492
sI1492
S'I will not turn the DM into a drinking game.'
p1493
sI1493
S'No metamagic feat lets me add fragmentation to my spells.'
p1494
sI1494
S'When playing a teleporter, I will buy the ability to actually teleport.'
p1495
sI1495
S'I not just buy the ability to teleport everybody but me.'
p1496
sI1496
S"When I'm out of character, the hand puppets come off."
p1497
sI1497
S'I will not use the time machine to make "Don\'t blame me, I voted for Tilden" bumper stickers.'
p1498
sI1498
S'Shooting him in the foot first does not give me a bonus to the ridicule check.'
p1499
sI1499
S'Even if historical accuracy is important in the adventure, I will not become the Nazi Nazi.'
p1500
sI1500
S"I will not convince the dragon to eat the elf instead because he's organically grown."
p1501
sI1501
S"I will not take the mirror image spell literally and just shoot the wizard that's not left handed."
p1502
sI1502
S"My first wish can't be to invalidate the previous character's last wish."
p1503
sI1503
S"Despite what the rules say, it doesn't take 45 minutes to choke a 10th level fighter to death."
p1504
sI1504
S'I cannot take the parachute skill until somebody invents the parachute.'
p1505
sI1505
S"We are not going through the phone book to see who's name is a killing word either."
p1506
sI1506
S'It is not automatically assumed whatever vehicle my cop commandeers is a monster truck.'
p1507
sI1507
S'North Equatorial Kansas is not a real state.'
p1508
sI1508
S'Nowhere in the timeline is Superfly McBoomboom a US vice president.'
p1509
sI1509
S'No part of the Constitution is written in invisible ink.'
p1510
sI1510
S"The Movie Phone Guy can't be the voice of the ship's computer."
p1511
sI1511
S'No using the time machine to set the "Star Spangled Banner" to anything by White Zombie.'
p1512
sI1512
S"My canine officer can't spend his animal requisition cash to buy two dozen chihuahuas."
p1513
sI1513
S'I will not shoot a Great Old One just to say I did it.'
p1514
sI1514
S'I will make it abundantly clear the guy playing my mortal enemy is a good friend in real life.'
p1515
sI1515
S'The Pope does not have cyberpsychosis.'
p1516
sI1516
S'I will not wish we were still playing Torg.'
p1517
sI1517
S'Checking to see if the Mad Slasher is dead is ok, dismembering him with a shotgun is overkill.'
p1518
sI1518
S'My Sniper will not kill all the bad guys before the rest of the party is in range.'
p1519
sI1519
S"In the middle of a Black Ops I can't sell my niece's band candy to the hostages."
p1520
sI1520
S"I will tell the noobs the storyteller wasn't joking about kicking people in the jewels for macking on jailbait."
p1521
sI1521
S"While not lethal, Ferris Wheels aren't exactly healthy to vampires."
p1522
sI1522
S"Outside of Kingwood Community College moose antlers do not mean 'Out of Character'."
p1523
sI1523
S'Stain glass windows are not a standard feature on Panzer tanks.'
p1524
sI1524
S"The spell Extract Water Elemental doesn't work on Water Elementals."
p1525
sI1525
S'I will not waste critical successes on drumming.'
p1526
sI1526
S"Can't use my pistols to communicate in Morse Code."
p1527
sI1527
S'There is no Patron Saint of the Dodecahedron.'
p1528
sI1528
S"I can't ask the bad guy if I fired 40,000 rounds or just 39,999."
p1529
sI1529
S'There is no such thing as a Thirty-Sevensexual'
p1530
sI1530
S'We are not sneaking in Mordor dressed as tour guides.'
p1531
sI1531
S"Even if it does take the thief 10 minutes to search the room, that's not enough time for a quickie."
p1532
sI1532
S"If its cheaper to buy a new gun than reload the old one, there's a problem."
p1533
sI1533
S"Even if the rules allow it, can't have a belt fed pistol."
p1534
sI1534
S"I will raise my hand if I've already heard the the DM's riddle."
p1535
sI1535
S'The spell is called Prismatic Spray, not Taste the Rainbow.'
p1536
sI1536
S"Before we start the dungeon crawl, I don't have to have my monk oiled down."
p1537
sI1537
S'My Rogue Trader does not need to announce his arrival with eight hours of orbital bombardment.'
p1538
sI1538
S"My mage can't just sleepwalk to get around resting for spells."
p1539
sI1539
S"When the power gamer sleeps, can't move the camp down the road."
p1540
sI1540
S"Can't lure out House Laio mechwarriors by announcing a Chinese Firedrill."
p1541
sI1541
S'While highly effective, grabbing his a man by his small intestine and making him talk like a ventriloquist dummy is frowned on.'
p1542
sI1542
S"My superhero didn't survive the purge of supers by just playing left offensive guard for the Detroit Lions."
p1543
sI1543
S"My warhammer doesn't have a claw part."
p1544
sI1544
S'Not allowed to just blow the supports under Menzoberranzan.'
p1545
sI1545
S"No matter how appreciated, I have to have a better super power than 'cures cancer by touch'"
p1546
sI1546
S"I can't spend Ship Points to put a Starbucks on the bridge."
p1547
sI1547
S'I will stop making up Space Marine Chapters.'
p1548
sI1548
S"My netrunner's icon has to be something other than the Space Invaders ship."
p1549
sI1549
S'The totalitarian government tends to notice large purchases of cows, trebuchets and surveying gear.'
p1550
sI1550
S"The Dirty Harry 'Feeling Lucky Punk' speech doesn't work with a longbow."
p1551
sI1551
S'During the Black Ops all cell phones go on vibrate.'
p1552
sI1552
S'My Lunar Class Cruiser has more than one bathroom.'
p1553
sI1553
S"I can't wish my girlfriend was hot like you."
p1554
sI1554
S"Archvillains don't care about zoning restrictions."
p1555
sI1555
S"No matter how well I roll on my intimidate check, France won't surrender."
p1556
sI1556
S'I do not have weapon proficiency in Craftsman.'
p1557
sI1557
S'I will not horde Electrum in 2nd edition because I know it will be phased out.'
p1558
sI1558
S'No Dire Marmot mounts until they publish the rules.'
p1559
sI1559
S'Any mention of Life Day gets everybody a dark side point.'
p1560
sI1560
S'My character is not addicted to the Feeling, the Shindig, or Love.'
p1561
sI1561
S'Not possible to tattoo the ceiling of the Sistine Chapel anywhere on my body.'
p1562
sI1562
S'Weapon codes mean Bludgeoning, Slashing and Piercing. Not Ballistic, Serrated and Pneumatic.'
p1563
sI1563
S'Dwarves have to take the platemail off before sex.'
p1564
sI1564
S'Superspeed gives immunity to friction.'
p1565
sI1565
S"Shapechanging is an acceptable super power. Shapechanging only into the '93 San Diego Padres is not."
p1566
sI1566
S'Bunk Cards are not for 3 card monte.'
p1567
sI1567
S"I don't get to play anybody's Shadow."
p1568
sI1568
S"Werewolves normally do not have access to the 'Sonnet' Specialization."
p1569
sI1569
S'The opening lyrics to Rock of Ages are not an acceptable substitute to a real plan.'
p1570
sI1570
S'No signing infernal contracts in disappearing ink.'
p1571
sI1571
S"Can't bluff the Empire at Hoth with just a whole bunch of snowmen."
p1572
sI1572
S'The Navigator has Warp Sight. Not Insane-o-Vision.'
p1573
sI1573
S'Attempting to woo the Space Elf Clown does not turn the adventure into a Harlequin romance.'
p1574
sI1574
S'I do not have to scan the Romulan ambassador for cooties.'
p1575
sI1575
S'Apaches do not settle arguments by Indian Leg Wrestling.'
p1576
sI1576
S'I will tell the new player fantasy games means gnomes and wizards not assless chaps and jumper cables.'
p1577
sI1577
S'The degauss gun is not a real gun.'
p1578
sI1578
S"Every time the halfing gets a critical hit I don't have to feed him a snack."
p1579
sI1579
S'No one in the party gets to name their character Kurgen McAsskicker.'
p1580
sI1580
S'I will not spend 30 minutes of the game trying to buy an accordion.'
p1581
sI1581
S'I will stop using crew as hit points.'
p1582
sI1582
S'I need to stop telling new players bards were the original prestige class.'
p1583
sI1583
S"Even if the rules allow it, can't take a prestige class at level 4."
p1584
sI1584
S"Even if the rules allow it, you can't sneak with a running chainsaw."
p1585
sI1585
S'Vegipygmies are not a part of this complete breakfast.'
p1586
sI1586
S"The Progenitor's job is not just to supply 'the good stuff'."
p1587
sI1587
S'There is no way the Iteration X mage is going to make it through airport security.'
p1588
sI1588
S"It's not ok to stick the Syndicate agent with the check every single time."
p1589
sI1589
S"We aren't calling the NWO agent at odd hours just to answer trivia questions."
p1590
sI1590
S"We will buy a GPS already so we don't have to drag the Void Engineer everywhere."
p1591
sI1591
S'Rokea do not make pacman noises when they attack.'
p1592
sI1592
S"If the Solar cringes, it's time to reassess my alignment."
p1593
sI1593
S"Even if the rules allow it, I can't build myself an Imperator Titan."
p1594
sI1594
S'Flak armor is not just a muscle shirt with the word "ARMOR" stenciled on it.'
p1595
sI1595
S"We aren't raising the villain from the dead because we haven't killed him enough yet."
p1596
sI1596
S"Even if she's the most dangerous, the party doesn't appreciate me killing the naked chick first."
p1597
sI1597
S"Devils don't appreciate natural 20's on a bargain check."
p1598
sI1598
S'If my gun can easily kill everything in the room, I go last in initiative.'
p1599
sI1599
S'There is no prize for having the prettiest werewolf.'
p1600
sI1600
S"Even if the rules allow it, I can't mount a flamethrower on a knife."
p1601
sI1601
S'Cephalopods do not get bonuses to attack Japanese women.'
p1602
sI1602
S'Druids have many roles in the party. Minesweeper is not one of them.'
p1603
sI1603
S'I am not El Vago the Gay Blade.'
p1604
sI1604
S'When told to pick a number between 1 and 10, the answer is not pi.'
p1605
sI1605
S'I cannot have a bluetooth telegraph.'
p1606
sI1606
S'If my fireballs always form a mushroom cloud, time to tone it down a bit.'
p1607
sI1607
S'They do not sell tire spikes at Kaybee Toys.'
p1608
sI1608
S'I cannot kill any man in a way made famous by Rutger Hauer.'
p1609
sI1609
S"Even if I am captain, I can't have my men portage my frigate."
p1610
sI1610
S"If the GM says 3d6 straight down, he didn't mean it if that gives me a pixie fairy berserker."
p1611
sI1611
S'Even if she started it, no setting the princess on fire.'
p1612
sI1612
S'There is no such thing as Boobs +1.'
p1613
sI1613
S'No matter how much they enjoy it, no juggling halfling children.'
p1614
sI1614
S'I will stop telling the noob the Star Wars universe celebrates people exploding at the age of 25.'
p1615
sI1615
S'Despite what the rules say, a dracheneisen life preserver is a bad idea.'
p1616
sI1616
S'Despite what the math says, elves do not gestate for an entire decade.'
p1617
sI1617
S'I will not take the flaw Enemy: Paranoids.'
p1618
sI1618
S'Any character even remotely resembling Mr. B Natural is dead before the first dice are rolled.'
p1619
sI1619
S"If the elf is rolling badly doesn't mean we need to water him."
p1620
sI1620
S"I will not use the druid's chakram to play frisbee with his dire wolf."
p1621
sI1621
S"No using the Reduce spell to only to buy a child's ticket at the movies."
p1622
sI1622
S'Militech does not have a wedding registry.'
p1623
sI1623
S"Can't thwart the Cylon's massive attack just by installing Norton Antivirus."
p1624
sI1624
S'It is bad form to sing along with the elevator music in a Black Ops.'
p1625
sI1625
S'Verbena weigh more than a duck.'
p1626
sI1626
S"My character's favorite color is not Burnt Umber Hulk."
p1627
sI1627
S'Getting a blue chip for humor does not entitle me to an acceptance speech.'
p1628
sI1628
S"If all the players have to pool there d6's so I can roll for initiative, time to retire the character."
p1629
sI1629
S"I can't medal in ass kicking."
p1630
sI1630
S'Starships do not have to drop anchor.'
p1631
sI1631
S"Starfleet's rules on using the Holodeck for recreating scenes from Caligula are very clear."
p1632
sI1632
S'I will not blow all my starting cash on just housecats.'
p1633
sI1633
S"If Plan A was 'Beat it out of him' Plan B can't be 'Just ask nicely'"
p1634
sI1634
S"If it's revealed Shakespeare was the author of Funky Cold Medina my time machine privileges are revoked."
p1635
sI1635
S'No bioengineering dolphins to shot laser beams out of their blowholes.'
p1636
sI1636
S"Animals native to Australia are not eligible for my druid's companion."
p1637
sI1637
S"'Dibs' is not a term of bereavement."
p1638
sI1638
S'Using the dwarf as a battering ram is expected. Other siege weapons not so much.'
p1639
sI1639
S'No giving a character a dumb name so he can pick fights over it later.'
p1640
sI1640
S'There is a limit to the number of adjectives I can attach to an uppercut.'
p1641
sI1641
S'No matter what it says, my intelligent vorpal sword is not getting rewarded with a candy bar.'
p1642
sI1642
S"No matter what the rules say, antibiotics can't make a man's head explode."
p1643
sI1643
S"Despite precedent, if the travel gets rough, we can't eat the bard."
p1644
sI1644
S'Even if it fills the mission parameters, no machete killing sprees dressed like Carmen Miranda.'
p1645
sI1645
S"One more bad pun for a character name and I'm forbidden from playing in the Furry RPG."
p1646
sI1646
S'I am not Wombatman.'
p1647
sI1647
S'Any character requiring the GM to tab more than 10 pages of rules for reference is vetoed.'
p1648
sI1648
S"Even if we are playing in the old west, can't spend all my money on leather, whips and barbed wire."
p1649
sI1649
S"I can't free the cannibals' prisoners by starting a food fight with them."
p1650
sI1650
S'Venting non-essential crew to the void before payday is not an acceptable cost cutting measure.'
p1651
sI1651
S'No teaching halflings how to fly.'
p1652
sI1652
S'My negamagician will not taunt the wage mage Brer Rabbit style.'
p1653
sI1653
S'The power gamer would appreciate me not bringing the book with the rule he is grotesquely abusing.'
p1654
sI1654
S'A warning shot is not one that just wounds him.'
p1655
sI1655
S'No using the halfling as a grappling hook.'
p1656
sI1656
S'Starting a flame war on the internet is bad. Starting a flame war not on the internet is much, much worse.'
p1657
sI1657
S'My halberdier is not guisarmed and dangerous.'
p1658
sI1658
S'The words "Rock Opera" will not appear in any of my wishes.'
p1659
sI1659
S"Just because he has specialization in observation skills does not mean 'he likes to watch'."
p1660
sI1660
S'Even if we just stole all their alkaline chemicals, that does not mean all their base belongs to us.'
p1661
sI1661
S'Cleaning out the dungeon means more than just backing up a cement truck to the window.'
p1662
sI1662
S'No starting a mosh pit in a leper colony.'
p1663
sI1663
S"There is no such thing as a 'bad touch attack'"
p1664
sI1664
S'If my Rogue Trader manages to arrive before he leaves, no cleaning up on the lottery.'
p1665
sI1665
S'I will not forget to uncuff the pedophile from outside the car before driving back to the station.'
p1666
sI1666
S'If if takes more than five minutes for the debris to stop falling, I need to pick a smaller gun.'
p1667
sI1667
S"When told to distract the bad guy they didn't mean by playing Wham over their commlinks."
p1668
sI1668
S"When told to distract the bad guy they didn't mean by shooting the guy standing next to him."
p1669
sI1669
S"When told to distract the bad guy they didn't mean by setting him on fire."
p1670
sI1670
S'Dungeons are not handicapped accessible.'
p1671
sI1671
S'Before entering the dungeon I will take off the "I\'m with tasty -->" tabard.'
p1672
sI1672
S'I will remember the Incredible Luck super power is illegal in Vegas.'
p1673
sI1673
S"I will not start dating another character's archenemy."
p1674
sI1674
S'I cannot start the game radioactive.'
p1675
sI1675
S'If an enemy fails a stun check, that does not give me a free hit for flinching.'
p1676
sI1676
S"Before I get it on with the green chick, I'll make sure she's supposed to be that color."
p1677
sI1677
S'Before I sass the power gamer, make sure the other players got my back.'
p1678
sI1678
S"I don't get any XP for anything I killed in a flashback."
p1679
sI1679
S"No amount of character points lets me start as the Beatle's bagpiper."
p1680
sI1680
S'The point of the Improvised Weapon Skill is not to see how many different things I can kill people with.'
p1681
sI1681
S'Just crossing his fingers behind his back is not an option for my paladin.'
p1682
sI1682
S'Snufficate is not a real way to kill somebody.'
p1683
sI1683
S'Killing the orc horde by drowning them all at once is heroic. Killing them by drowning them one at a time is an alignment check.'
p1684
sI1684
S'No making up euphemisms for death.'
p1685
sI1685
S'There is no Neurotic Book of Fantasy.'
p1686
sI1686
S'Dodge Everything While Standing Still is not a real spell.'
p1687
sI1687
S'No following a minute behind Gold Leader and just shooting down Vader.'
p1688
sI1688
S"Just because he starts every game in a tavern doesn't mean the Barbarian needs rehab."
p1689
sI1689
S"1/3 of the elf homeland's GDP does not go to hair care products."
p1690
sI1690
S"I don't get double XP if I kill the monster with explosive decompression."
p1691
sI1691
S"True Sight doesn't tell me what the NPC's treasure type is."
p1692
sI1692
S"Buying the alternative identity advantage is perfectly legal, unless it's Elvis."
p1693
sI1693
S"When asked to describe my room, can't use Smaug's lair as a template."
p1694
sI1694
S'Debauchery is not a stat.'
p1695
sI1695
S"Can't load the shotgun just with rock salt because I'm feeling mean."
p1696
sI1696
S"Yes, Les Paul is a guitar god. No, he can't grant spells."
p1697
sI1697
S"Can't use the Decanter of Endless Water for water skiing, the Jacuzzi, or a wet tabard contest."
p1698
sI1698
S'Andorrans are not closely related to smurfs.'
p1699
sI1699
S"The Astromech appreciates it if we'd stop using him for ordinance delivery."
p1700
sI1700
S"Even if the rules allow it, Lawful Good deities don't appreciate human sacrifices to them."
p1701
sI1701
S"Can't clear out a dungeon by sneaking in and running a generator while they sleep."
p1702
sI1702
S"Even if it's historical accurate, can't try to heal someone by cutting them."
p1703
sI1703
S'The time machine is not for finding ringers for our baseball team.'
p1704
sI1704
S"Even if we're playing Werewolf: The Wild West, can't play the Lone Ranger."
p1705
sI1705
S'If my boss wakes up to find a young Frank Sinatra won American Idol, no more time machine for me.'
p1706
sI1706
S'Before anybody makes a demolitions check, I will raise my hand if my skill is the highest.'
p1707
sI1707
S"In the middle of a black ops, can't play 'will it bounce' with the penthouse furniture."
p1708
sI1708
S"No bringing up the time we were nearly TPK'd by a jerboa."
p1709
sI1709
S'Even if its really cool, no throwing dry ice on the water weird.'
p1710
sI1710
S'Mooning M. Bison is not an appropriate stunt action.'
p1711
sI1711
S'I will not spend all my starting cash on the stock market.'
p1712
sI1712
S"Can't take out the villain by just propping a bucket of acid over his door."
p1713
sI1713
S"It is not necessary for the villain to say 'Uncle' before I accept his surrender."
p1714
sI1714
S'My martial artist has to actually know a martial art.'
p1715
sI1715
S"Can't just wizard lock the villain's throne room and come back in two weeks after he's starved to death."
p1716
sI1716
S'Summon Para-Legal Elemental is not a real spell.'
p1717
sI1717
S'The spell Summon Vacuum Elemental is not for household chores.'
p1718
sI1718
S"I don't have to name everything we discover after myself."
p1719
sI1719
S"I can't forge out a new Elven homeland by conquest unless the Elves want a new homeland."
p1720
sI1720
S'Contrary to popular opinion, the girdle of masculinity/femininity does have a noticeable effect on elves.'
p1721
sI1721
S'The minute the GM figures out my Inquisitor is Lennie Briscoe, he dies.'
p1722
sI1722
S'No building a Gatling Gatling gun.'
p1723
sI1723
S'My martial arts style is vetoed if its just thirty different ways to hit a guy in the jewels.'
p1724
sI1724
S"No matter how well I make my Animal Wrangling roll, can't saddle break a Los Diablos."
p1725
sI1725
S"No god's vestments include gogo boots."
p1726
s.
