(lp1
S'waterworld'
p2
aS"kenneth branagh's hamlet"
p3
aS'stars wars'
p4
aS"all the president's men"
p5
aS'amelie'
p6
aS'where the wild things are'
p7
aS"the vampire's assistant"
p8
aS'alice in wonderland'
p9
aS'persepolis'
p10
aS'joyeux noel'
p11
a.