(dp1
S'doctor_rockso'
p2
(dp3
S'action'
p4
S'changing nick to pasko'
p5
sS'secs'
p6
F1304727932.688
sS'lines'
p7
I14
sS'chars'
p8
I574
ssS'holy_grahl'
p9
(dp10
S'action'
p11
S'joining #TRSpam'
p12
sS'secs'
p13
F1316352031.8110001
sS'lines'
p14
I56
sS'chars'
p15
I1967
ssS'llamasnipertyper'
p16
(dp17
S'action'
p18
S'changing nick to RynRynRyn'
p19
sS'secs'
p20
F1315513815.54
sS'lines'
p21
I2
sS'chars'
p22
I7
ssS'caity'
p23
(dp24
S'action'
p25
S'speaking in #boats'
p26
sS'secs'
p27
F1313658173.493
sS'lines'
p28
I177
sS'chars'
p29
I5478
ssS'haggz'
p30
(dp31
S'action'
p32
S'quitting with: Quit: http://www.mibbit.com ajax IRC Client'
p33
sS'secs'
p34
F1305196105.0469999
sS'lines'
p35
I13
sS'chars'
p36
I839
ssS'cartis^'
p37
(dp38
S'action'
p39
S'quitting with: Client closed the connection'
p40
sS'secs'
p41
F1316329584.0469999
sS'lines'
p42
I17
sS'chars'
p43
I281
ssS'gk'
p44
(dp45
g39
S'quitting with: Quit: Some folks are wise, and some otherwise.'
p46
sg41
F1305284075.4860001
sg42
I378
sg43
I16819
ssS'emily'
p47
(dp48
S'action'
p49
S'changing nick to where|Doingstuff'
p50
sS'secs'
p51
F1315967643.6459999
sS'lines'
p52
I84
sS'chars'
p53
I1691
ssS'boreeas'
p54
(dp55
S'action'
p56
S'quitting with: Quit: The Game'
p57
sS'secs'
p58
F1311682547.175
sS'lines'
p59
I400
sS'chars'
p60
I7544
ssS'wormdrink'
p61
(dp62
S'action'
p63
S'quitting with: Ping timeout: 264 seconds'
p64
sS'secs'
p65
F1295978042.1849999
sS'lines'
p66
I16
sS'chars'
p67
I383
ssS'ephos'
p68
(dp69
S'action'
p70
S'quitting with: Client exited'
p71
sS'secs'
p72
F1312886632.0450001
sS'lines'
p73
I13
sS'chars'
p74
I389
ssS'tron_lega'
p75
(dp76
S'action'
p77
S'quitting with: Quit: ChatZilla 0.9.86 [Firefox 3.6.13/20101203075014]'
p78
sS'secs'
p79
F1298589084.2379999
sS'lines'
p80
I11
sS'chars'
p81
I306
ssS'megaman'
p82
(dp83
g63
S'quitting with: Client exited'
p84
sg65
F1295839621.813
sg66
I13
sg67
I319
ssS'nameless|starbucks'
p85
(dp86
S'action'
p87
S'quitting with: Quit: And now I go back to work'
p88
sS'secs'
p89
F1301881164.526
sS'lines'
p90
I20
sS'chars'
p91
I407
ssS'pandavskii'
p92
(dp93
S'action'
p94
S'parting #necrolounge'
p95
sS'secs'
p96
F1304465812.7720001
sS'lines'
p97
I28
sS'chars'
p98
I637
ssS'peavey'
p99
(dp100
S'action'
p101
S'joining #internet'
p102
sS'secs'
p103
F1316188444.0039999
sS'lines'
p104
I803
sS'chars'
p105
I22957
ssS'sev|dayofdefeatsauve'
p106
(dp107
g18
S'changing nick to Sev|DayofDefeatSauce'
p108
sg20
F1315515389.0829999
sg21
I0
sg22
I0
ssS'eugenebeer[3]'
p109
(dp110
g18
S'changing nick to EugeneBeer[4]'
p111
sg20
F1315764978.8829999
sg21
I0
sg22
I0
ssS'redct'
p112
(dp113
S'action'
p114
S'quitting with: Quit: redct'
p115
sS'secs'
p116
F1312698373.6400001
sS'lines'
p117
I21
sS'chars'
p118
I513
ssS'maas'
p119
(dp120
g63
S'quitting with: Quit: Light travels faster then sound, which is why some people appear bright, until you hear them speak'
p121
sg65
F1299052755.01
sg66
I152
sg67
I5703
ssS'fai'
p122
(dp123
S'action'
p124
S'quitting with: Client closed the connection'
p125
sS'secs'
p126
F1316395818.1459999
sS'lines'
p127
I0
sS'chars'
p128
I0
ssS'guest74896'
p129
(dp130
S'action'
p131
S'changing nick to titsos'
p132
sS'secs'
p133
F1315833217.109
sS'lines'
p134
I0
sS'chars'
p135
I0
ssS'jonanin'
p136
(dp137
g39
S'quitting with: Ping timeout'
p138
sg41
F1311467789.9330001
sg42
I77
sg43
I1379
ssS'luigiman'
p139
(dp140
g131
S'joining #Equilibrium'
p141
sg133
F1316039468.04
sg134
I0
sg135
I0
ssS'guest82843'
p142
(dp143
g131
S'quitting with: Ping timeout: 121 seconds'
p144
sg133
F1316025158.905
sg134
I0
sg135
I0
ssS'atreus_'
p145
(dp146
S'action'
p147
S'joining #boats'
p148
sS'secs'
p149
F1315831903.0539999
sS'lines'
p150
I123
sS'chars'
p151
I3412
ssS'w00t'
p152
(dp153
S'action'
p154
S'speaking in #internet'
p155
sS'secs'
p156
F1315748307.6619999
sS'lines'
p157
I97
sS'chars'
p158
I3234
ssS'titsos'
p159
(dp160
g39
S'quitting with: Client closed the connection'
p161
sg41
F1316379456.8699999
sg42
I565
sg43
I14779
ssS'kinglaptop'
p162
(dp163
g154
S'quitting with: Quit: Leaving'
p164
sg156
F1299788674.4530001
sg157
I18
sg158
I481
ssS'mirrepp'
p165
(dp166
g39
S'quitting with: Quit: MirrePP'
p167
sg41
F1316200682.5829999
sg42
I968
sg43
I28435
ssS'guest31807|away'
p168
(dp169
g124
S'changing nick to coldacid'
p170
sg126
F1315539703.1240001
sg127
I0
sg128
I0
ssS'guest40049'
p171
(dp172
g131
S'changing nick to Corevette789'
p173
sg133
F1316023689.7420001
sg134
I0
sg135
I0
ssS'atry|fail'
p174
(dp175
S'action'
p176
S'changing nick to Atry|'
p177
sS'secs'
p178
F1316229651.1059999
sS'lines'
p179
I1
sS'chars'
p180
I31
ssS'revan'
p181
(dp182
g131
S'changing nick to Shawn'
p183
sg133
F1315942320.039
sg134
I0
sg135
I0
ssS'sann'
p184
(dp185
g63
S'changing nick to sannse'
p186
sg65
F1316222446.4679999
sg66
I95
sg67
I2494
ssS'niarch'
p187
(dp188
g176
S'joining #devart'
p189
sg178
F1316271800.72
sg179
I0
sg180
I0
ssS'cookies'
p190
(dp191
g176
S'quitting with: Quit: '
p192
sg178
F1316294538.0469999
sg179
I4
sg180
I27
ssS'kai__'
p193
(dp194
g11
S'quitting with: Connection reset by peer'
p195
sg13
F1307918894.9849999
sg14
I203
sg15
I5446
ssS'minion'
p196
(dp197
g11
S'changing nick to Adward'
p198
sg13
F1310934462.3010001
sg14
I58
sg15
I1606
ssS'zeoinx'
p199
(dp200
S'action'
p201
S'quitting with: Quit: Leaving'
p202
sS'secs'
p203
F1312944581
sS'lines'
p204
I13
sS'chars'
p205
I773
ssS'sync'
p206
(dp207
g124
S'joining #Equilibrium'
p208
sg126
F1316398833.543
sg127
I0
sg128
I0
ssS'yacc'
p209
(dp210
g124
S'joining #uespwiki'
p211
sg126
F1316116289.7490001
sg127
I0
sg128
I0
ssS'john_234'
p212
(dp213
S'action'
p214
S'joining #devart'
p215
sS'secs'
p216
F1316393329.5899999
sS'lines'
p217
I69
sS'chars'
p218
I1156
ssS'zephyr|dev'
p219
(dp220
g11
S'changing nick to Zephyr'
p221
sg13
F1295242705.737
sg14
I11
sg15
I443
ssS'sithis'
p222
(dp223
S'action'
p224
S'quitting with: Ping timeout: 121 seconds'
p225
sS'secs'
p226
F1310713714.553
sS'lines'
p227
I60
sS'chars'
p228
I2814
ssS'tolwin'
p229
(dp230
g49
S'quitting with: Quit: Leaving'
p231
sg51
F1302243944.677
sg52
I17
sg53
I1119
ssS'joannac'
p232
(dp233
S'action'
p234
S'joining #boats'
p235
sS'secs'
p236
F1315833664.9200001
sS'lines'
p237
I760
sS'chars'
p238
I14087
ssS'des|work'
p239
(dp240
g214
S'quitting with: Quit: The computer fell asleep'
p241
sg216
F1314125030.0179999
sg217
I14
sg218
I239
ssS's_arms'
p242
(dp243
g176
S'quitting with: Ping timeout: 121 seconds'
p244
sg178
F1316353648.1949999
sg179
I0
sg180
I0
ssS'drazak'
p245
(dp246
g18
S'joining #bots'
p247
sg20
F1315545433.9979999
sg21
I0
sg22
I0
ssS'lennon'
p248
(dp249
g39
S'quitting with: Client exited'
p250
sg41
F1316375929.902
sg42
I40
sg43
I1497
ssS'sannn'
p251
(dp252
g114
S'quitting with: Quit: zzzzzzzzzzzzzzzzzzzzzzzz'
p253
sg116
F1312606145.573
sg117
I15
sg118
I512
ssS'gaycarrot'
p254
(dp255
g56
S'changing nick to StraightCucumber'
p256
sg58
F1303262288.832
sg59
I74
sg60
I3510
ssS'chibimoogle'
p257
(dp258
g39
S'speaking in #TRSpam'
p259
sg41
F1316380710.714
sg42
I344
sg43
I13066
ssS'pasko\\eve'
p260
(dp261
S'action'
p262
S'quitting with: Quit: http://www.mibbit.com ajax IRC Client'
p263
sS'secs'
p264
F1304208468.4100001
sS'lines'
p265
I67
sS'chars'
p266
I1786
ssS'gr8cthulhu'
p267
(dp268
g131
S'joining #bots'
p269
sg133
F1315986230.3710001
sg134
I0
sg135
I0
ssS'nevet'
p270
(dp271
S'action'
p272
S'quitting with: Quit: '
p273
sS'secs'
p274
F1301779243.1340001
sS'lines'
p275
I31
sS'chars'
p276
I1507
ssS'dextralus'
p277
(dp278
g124
S'joining #bots'
p279
sg126
F1316384542.0810001
sg127
I0
sg128
I0
ssS'legoless'
p280
(dp281
S'action'
p282
S'quitting with: Client exited'
p283
sS'secs'
p284
F1315952986.5139999
sS'lines'
p285
I26
sS'chars'
p286
I1271
ssS'guest73140'
p287
(dp288
g131
S'changing nick to wolli'
p289
sg133
F1315887017.29
sg134
I0
sg135
I0
ssS'chibimoogle1'
p290
(dp291
g131
S'changing nick to ChibiMoogle'
p292
sg133
F1316157487.2090001
sg134
I0
sg135
I0
ssS'pyrogun'
p293
(dp294
g11
S'changing nick to Sithis'
p295
sg13
F1298953776.6170001
sg14
I123
sg15
I6427
ssS'alchemist'
p296
(dp297
g18
S'quitting with: Ping timeout: 121 seconds'
p298
sg20
F1316046025.7490001
sg21
I0
sg22
I0
ssS'k'
(dp299
g63
S'quitting with: Quit: Do fish get thirsty?'
p300
sg65
F1296085821.6340001
sg66
I23
sg67
I580
ssS'sevre|me2'
p301
(dp302
g124
S'changing nick to Sevre|lunch'
p303
sg126
F1315409228.8770001
sg127
I0
sg128
I0
ssS'atry|test'
p304
(dp305
g147
S'changing nick to Atry_|away'
p306
sg149
F1298920040.118
sg150
I21
sg151
I260
ssS'gl'
p307
(dp308
S'action'
p309
S'joining #Aetherius'
p310
sS'secs'
p311
F1298976142.523
sS'lines'
p312
I22
sS'chars'
p313
I816
ssS'sniper430'
p314
(dp315
g11
S'joining #Equilibrium'
p316
sg13
F1316379785.8069999
sg14
I115
sg15
I3033
ssS'grandmarquis'
p317
(dp318
S'action'
p319
S'joining #necrolounge'
p320
sS'secs'
p321
F1316400628.016
sS'lines'
p322
I208
sS'chars'
p323
I8660
ssS'chaos95_'
p324
(dp325
S'action'
p326
S'quitting with: Quit: http://www.mibbit.com ajax IRC Client'
p327
sS'secs'
p328
F1305530490.8269999
sS'lines'
p329
I15
sS'chars'
p330
I460
ssS'arvisrend|codingtheory'
p331
(dp332
S'action'
p333
S'changing nick to arvisrend'
p334
sS'secs'
p335
F1303941575.1589999
sS'lines'
p336
I11
sS'chars'
p337
I168
ssS'wigbot'
p338
(dp339
g39
S'speaking in #necrolounge'
p340
sg41
F1316393481.1800001
sg42
I1262
sg43
I57372
ssS'hisdem_'
p341
(dp342
g87
S'quitting with: Remote host closed the connection'
p343
sg89
F1302566482.7809999
sg90
I15
sg91
I1120
ssS'medved'
p344
(dp345
g63
S'quitting with: Quit: http://www.mibbit.com ajax IRC Client'
p346
sg65
F1297639265.918
sg66
I135
sg67
I6421
ssS'guest24785'
p347
(dp348
g18
S'changing nick to Lu2'
p349
sg20
F1315785396.652
sg21
I0
sg22
I0
ssS'kindari|work'
p350
(dp351
g39
S'changing nick to k'
p352
sg41
F1295985236.902
sg42
I92
sg43
I3325
ssS'joshua'
p353
(dp354
g124
S'quitting with: Quit: has joined'
p355
sg126
F1316393361.28
sg127
I0
sg128
I0
ssS'sniper430|lol'
p356
(dp357
g18
S'changing nick to Sniper430'
p358
sg20
F1315875477.6040001
sg21
I0
sg22
I0
ssS'spooks'
p359
(dp360
S'action'
p361
S'joining #boats'
p362
sS'secs'
p363
F1313692975.707
sS'lines'
p364
I2516
sS'chars'
p365
I67314
ssS'arvisrend'
p366
(dp367
S'action'
p368
S'changing nick to arvisrend|afk'
p369
sS'secs'
p370
F1311630031.1300001
sS'lines'
p371
I182
sS'chars'
p372
I6069
ssS'lajla'
p373
(dp374
g124
S'quitting with: Ping timeout: 264 seconds'
p375
sg126
F1316218484.654
sg127
I0
sg128
I0
ssS'w00t_'
p376
(dp377
S'action'
p378
S'speaking in #internet'
p379
sS'secs'
p380
F1313138539.0929999
sS'lines'
p381
I15
sS'chars'
p382
I536
ssS'guest31807|away|away'
p383
(dp384
g18
S'changing nick to Guest31807|away'
p385
sg20
F1315532829.0739999
sg21
I0
sg22
I0
ssS'paprikachu'
p386
(dp387
S'action'
p388
S'changing nick to Pogs'
p389
sS'secs'
p390
F1316019652.3369999
sS'lines'
p391
I178
sS'chars'
p392
I4383
ssS'ongoingwhy'
p393
(dp394
g18
S'quitting with: Client closed the connection'
p395
sg20
F1315816458.767
sg21
I3
sg22
I155
ssS'tooly'
p396
(dp397
g11
S'quitting with: Ping timeout'
p398
sg13
F1316335868.9330001
sg14
I36
sg15
I869
ssS'duck'
p399
(dp400
S'action'
p401
S'joining #internet'
p402
sS'secs'
p403
F1305850324.1259999
sS'lines'
p404
I35
sS'chars'
p405
I755
ssS'lizzy'
p406
(dp407
g77
S'quitting with: Quit: ooOOoo, what does this button do?!'
p408
sg79
F1316369308.8670001
sg80
I274
sg81
I4415
ssS'nin10doh'
p409
(dp410
S'action'
p411
S'quitting with: Quit: http://www.mibbit.com ajax IRC Client'
p412
sS'secs'
p413
F1297723592.487
sS'lines'
p414
I13
sS'chars'
p415
I479
ssS'lime'
p416
(dp417
g18
S'quitting with: Ping timeout'
p418
sg20
F1315985415.326
sg21
I0
sg22
I0
ssS'michaleson'
p419
(dp420
g368
S'quitting with: Quit: http://www.mibbit.com ajax IRC Client'
p421
sg370
F1307462880.177
sg371
I35
sg372
I847
ssS'shadowdaemon'
p422
(dp423
g361
S'joining #boats'
p424
sg363
F1315833664.918
sg364
I25
sg365
I730
ssS'josh|lionaire'
p425
(dp426
g234
S'quitting with: Client exited'
p427
sg236
F1316378634.7579999
sg237
I19
sg238
I299
ssS'godcheese'
p428
(dp429
S'action'
p430
S'joining #necrolounge'
p431
sS'secs'
p432
F1316362349.467
sS'lines'
p433
I472
sS'chars'
p434
I24999
ssS'nazgjunk'
p435
(dp436
g11
S'joining #bots'
p437
sg13
F1315545088.668
sg14
I21
sg15
I762
ssS'haskillbot'
p438
(dp439
S'action'
p440
S'joining #necrolounge'
p441
sS'secs'
p442
F1316383301.451
sS'lines'
p443
I0
sS'chars'
p444
I0
ssS'fallout|modding'
p445
(dp446
S'action'
p447
S'changing nick to Anthony'
p448
sS'secs'
p449
F1303717524.2460001
sS'lines'
p450
I14
sS'chars'
p451
I501
ssS'guest85229'
p452
(dp453
g18
S'changing nick to titsos'
p454
sg20
F1315515668.8340001
sg21
I0
sg22
I0
ssS'krusty'
p455
(dp456
g39
S'quitting with: Client exited'
p457
sg41
F1316394281.744
sg42
I1898
sg43
I88959
ssS'snarky'
p458
(dp459
g18
S'changing nick to snark'
p460
sg20
F1315801202.404
sg21
I0
sg22
I0
ssS'asiekierka'
p461
(dp462
g49
S'quitting with: Ping timeout'
p463
sg51
F1302298236.951
sg52
I27
sg53
I510
ssS'dead_beef'
p464
(dp465
g401
S'parting #devart for: bye'
p466
sg403
F1296527377.299
sg404
I17
sg405
I634
ssS'adward'
p467
(dp468
g39
S'quitting with: Quit: Leaving'
p469
sg41
F1316385007.2739999
sg42
I5862
sg43
I100201
ssS'penis'
p470
(dp471
g447
S'quitting with: Quit: http://www.mibbit.com ajax IRC Client'
p472
sg449
F1313022417.885
sg450
I24
sg451
I538
ssS'sirlagalot'
p473
(dp474
g124
S'changing nick to Dinner'
p475
sg126
F1315707519.122
sg127
I0
sg128
I0
ssS'lpzm'
p476
(dp477
g411
S'quitting with: Read error: Connection reset by peer'
p478
sg413
F1313070926.6129999
sg414
I85
sg415
I2893
ssS'sculptor'
p479
(dp480
g131
S'quitting with: Quit: KVIrc 4.0.4 Insomnia http://www.kvirc.net/'
p481
sg133
F1316381215.2409999
sg134
I0
sg135
I0
ssS'mf'
p482
(dp483
g201
S'quitting with: Quit: KVIrc Insomnia 4.0.0, revision: 3900, sources date: 20100125, built on: 2011-03-15 15:32:03 UTC http://www.kvirc.net/'
p484
sg203
F1313185113.9159999
sg204
I33
sg205
I623
ssS'kyte2'
p485
(dp486
g39
S'quitting with: Ping timeout: 252 seconds'
p487
sg41
F1316328402.8570001
sg42
I36
sg43
I2070
ssS'krusty|away'
p488
(dp489
g32
S'changing nick to Krusty'
p490
sg34
F1315765579.2539999
sg35
I42
sg36
I1728
ssS'atry|pidgin'
p491
(dp492
g49
S'parting #StageCrew'
p493
sg51
F1302558353.6659999
sg52
I33
sg53
I913
ssS'i'
(dp494
g94
S'changing nick to Xhu'
p495
sg96
F1316184929.8829999
sg97
I33
sg98
I857
ssS'des'
p496
(dp497
g114
S'quitting with: Quit: http://www.mibbit.com ajax IRC Client'
p498
sg116
F1312351408.72
sg117
I24
sg118
I701
ssS'mk'
p499
(dp500
g388
S'joining #internet'
p501
sg390
F1316247843.9219999
sg391
I1465
sg392
I37069
ssS'cat'
p502
(dp503
g39
S'quitting with: Client closed the connection'
p504
sg41
F1316390852.0320001
sg42
I535
sg43
I15316
ssS'uli'
p505
(dp506
g131
S'changing nick to usc'
p507
sg133
F1315917392.3429999
sg134
I0
sg135
I0
ssS'xhu'
p508
(dp509
g124
S'quitting with: Quit: Cavemen win.'
p510
sg126
F1316266492.681
sg127
I1
sg128
I4
ssS'corevette789'
p511
(dp512
g39
S'speaking in #necrolounge'
p513
sg41
F1316393529.4360001
sg42
I1542
sg43
I46521
ssS'foksieyl'
p514
(dp515
S'action'
p516
S'joining #uespwiki'
p517
sS'secs'
p518
F1316372850.108
sS'lines'
p519
I34
sS'chars'
p520
I1275
ssS'ap214'
p521
(dp522
g516
S'quitting with: Ping timeout: 264 seconds'
p523
sg518
F1309620313.187
sg519
I68
sg520
I1315
ssS'emsenn_'
p524
(dp525
S'action'
p526
S'quitting with: Quit: Lost terminal'
p527
sS'secs'
p528
F1311740751.25
sS'lines'
p529
I391
sS'chars'
p530
I11682
ssS'tf|slep'
p531
(dp532
g18
S'changing nick to TF|Work'
p533
sg20
F1315799336.855
sg21
I0
sg22
I0
ssS'suds'
p534
(dp535
g124
S'joining #uespwiki'
p536
sg126
F1316235325.27
sg127
I0
sg128
I0
ssS'spb'
p537
(dp538
g147
S'joining #internet'
p539
sg149
F1315599511.359
sg150
I51
sg151
I2084
ssS'hydrogen'
p540
(dp541
g124
S'quitting with: Connection reset by peer'
p542
sg126
F1316135398.1800001
sg127
I0
sg128
I0
ssS'krusty|movie'
p543
(dp544
g234
S'quitting with: Client exited'
p545
sg236
F1315006021.9990001
sg237
I41
sg238
I1714
ssS'ryn'
p546
(dp547
g39
S'quitting with: Quit: When in doubt, use C4.'
p548
sg41
F1316118913.6800001
sg42
I2420
sg43
I38885
ssS'guest15739'
p549
(dp550
g131
S'changing nick to Corevette789'
p551
sg133
F1316025092.6730001
sg134
I0
sg135
I0
ssS'mapd'
p552
(dp553
S'action'
p554
S'quitting with: Quit: '
p555
sS'secs'
p556
F1307749150.6010001
sS'lines'
p557
I99
sS'chars'
p558
I1569
ssS'mrsgrime'
p559
(dp560
g11
S'quitting with: Quit: '
p561
sg13
F1295320761.079
sg14
I20
sg15
I1303
ssS'atreus'
p562
(dp563
S'action'
p564
S'speaking in #stagecrew'
p565
sS'secs'
p566
F1316403276.7420001
sS'lines'
p567
I13662
sS'chars'
p568
I343698
ssS'peregrine'
p569
(dp570
g440
S'joining #necrolounge'
p571
sg442
F1316403246.0239999
sg443
I0
sg444
I0
ssS'geekthras'
p572
(dp573
g11
S'quitting with: Ping timeout'
p574
sg13
F1313827686.4949999
sg14
I50
sg15
I1310
ssS'theprophetgaamer'
p575
(dp576
g176
S'parting #uespwiki'
p577
sg178
F1316295799.927
sg179
I25
sg180
I1328
ssS'pogs'
p578
(dp579
g114
S'speaking in #internet'
p580
sg116
F1316195113.431
sg117
I210
sg118
I7458
ssS'aminor'
p581
(dp582
g114
S'quitting with: Quit: '
p583
sg116
F1312060436.993
sg117
I50
sg118
I2046
ssS'nachtruhe'
p584
(dp585
g32
S'quitting with: Client Quit'
p586
sg34
F1305250416.1559999
sg35
I15
sg36
I264
ssS'lan'
p587
(dp588
g63
S'changing nick to DrWily'
p589
sg65
F1295834433.9389999
sg66
I12
sg67
I116
ssS'guest16908'
p590
(dp591
g131
S'changing nick to Lu2'
p592
sg133
F1315835155.3829999
sg134
I0
sg135
I0
ssS'optimisticcynic'
p593
(dp594
g526
S'joining #boats'
p595
sg528
F1315833664.9189999
sg529
I1979
sg530
I71088
ssS'tea_girl'
p596
(dp597
g430
S'quitting with: G-Lined'
p598
sg432
F1302800293.7720001
sg433
I14
sg434
I476
ssS'megaman_x'
p599
(dp600
g176
S'quitting with: Ping timeout: 121 seconds'
p601
sg178
F1316281085.632
sg179
I0
sg180
I0
ssS'guest28219'
p602
(dp603
g18
S'changing nick to titsos'
p604
sg20
F1315668225.7390001
sg21
I0
sg22
I0
ssS'sevre|lol'
p605
(dp606
g18
S'quitting with: Client closed the connection'
p607
sg20
F1315697125.1589999
sg21
I0
sg22
I0
ssS'a'
(dp608
g63
S'changing nick to Lupin'
p609
sg65
F1302957178.8529999
sg66
I28
sg67
I471
ssS'hydronic'
p610
(dp611
S'action'
p612
S'quitting'
p613
sS'secs'
p614
F1315584996.073
sS'lines'
p615
I147
sS'chars'
p616
I2542
ssS'mjf'
p617
(dp618
S'action'
p619
S'quitting with: Quit: Easy as 3.14159265358979323846... '
p620
sS'secs'
p621
F1316386725.908
sS'lines'
p622
I9350
sS'chars'
p623
I214645
ssS'eh-live'
p624
(dp625
g32
S'quitting with: Connection reset by peer'
p626
sg34
F1305283657.6659999
sg35
I12
sg36
I847
ssS'_0x44'
p627
(dp628
S'action'
p629
S'speaking in #boats'
p630
sS'secs'
p631
F1315514879.6730001
sS'lines'
p632
I255
sS'chars'
p633
I11003
ssS'guest52763'
p634
(dp635
g176
S'changing nick to LinDaa'
p636
sg178
F1316399385.1760001
sg179
I0
sg180
I0
ssS'n64dude'
p637
(dp638
g18
S'parting #Equilibrium'
p639
sg20
F1315593181.9300001
sg21
I1
sg22
I4
ssS'yppup'
p640
(dp641
g612
S'quitting with: Quit: http://www.mibbit.com ajax IRC Client'
p642
sg614
F1313558567.125
sg615
I61
sg616
I806
ssS'ringwraith|disgaea4'
p643
(dp644
g131
S'changing nick to Ringwraith'
p645
sg133
F1316395992.589
sg134
I0
sg135
I0
ssS'emsenn0'
p646
(dp647
g147
S'parting #boats'
p648
sg149
F1298863073.7160001
sg150
I68
sg151
I1881
ssS'jack'
p649
(dp650
g554
S'quitting with: Quit: disco'
p651
sg556
F1307768285.905
sg557
I15
sg558
I483
ssS'wolfie'
p652
(dp653
g176
S'quitting with: Read error: Connection reset by peer'
p654
sg178
F1316334373.4630001
sg179
I0
sg180
I0
ssS'guest86417'
p655
(dp656
g131
S'changing nick to Lu2'
p657
sg133
F1316121944.839
sg134
I0
sg135
I0
ssS'rudyroughnight'
p658
(dp659
g18
S'changing nick to Sonatawraith'
p660
sg20
F1315751942.2260001
sg21
I0
sg22
I0
ssS'duke0807'
p661
(dp662
g94
S'quitting with: Client exited'
p663
sg96
F1304536942.9979999
sg97
I20
sg98
I914
ssS'guest86416'
p664
(dp665
g131
S'changing nick to LukishO_O'
p666
sg133
F1316061217.888
sg134
I0
sg135
I0
ssS'rynryn'
p667
(dp668
g101
S'quitting with: Client Quit'
p669
sg103
F1315514237.7320001
sg104
I438
sg105
I6609
ssS'dw'
p670
(dp671
S'action'
p672
S'quitting with: Quit: '
p673
sS'secs'
p674
F1307750973.507
sS'lines'
p675
I70
sS'chars'
p676
I1316
ssS'_lemon_'
p677
(dp678
g39
S'quitting with: Quit: Konversation terminated!'
p679
sg41
F1307918021.026
sg42
I27
sg43
I996
ssS'ramen'
p680
(dp681
S'action'
p682
S'quitting with: Client closed the connection'
p683
sS'secs'
p684
F1313869914.809
sS'lines'
p685
I17
sS'chars'
p686
I1275
ssS'maid'
p687
(dp688
g11
S'speaking in #necrolounge'
p689
sg13
F1316394985.937
sg14
I568
sg15
I24763
ssS'tyler'
p690
(dp691
g39
S'quitting with: Quit: Tyler'
p692
sg41
F1302419478.569
sg42
I503
sg43
I11044
ssS'z|food'
p693
(dp694
g124
S'changing nick to ZRVera'
p695
sg126
F1315404015.4560001
sg127
I0
sg128
I0
ssS'samsleep'
p696
(dp697
g11
S'changing nick to SamSmart'
p698
sg13
F1314030726.3269999
sg14
I18
sg15
I336
ssS'abkarch'
p699
(dp700
g214
S'quitting with: Client exited'
p701
sg216
F1309887890.411
sg217
I30
sg218
I1644
ssS'kiwizoom'
p702
(dp703
g234
S'quitting with: Read error: Connection reset by peer'
p704
sg236
F1295073304.4660001
sg237
I33
sg238
I945
ssS'lukish'
p705
(dp706
g234
S'changing nick to Guest86417'
p707
sg236
F1316121214.464
sg237
I867
sg238
I31898
ssS'adsleep'
p708
(dp709
g124
S'quitting with: Quit: Leaving'
p710
sg126
F1315386934.9059999
sg127
I0
sg128
I0
ssS'tf|1'
p711
(dp712
g18
S'changing nick to TF|'
p713
sg20
F1316378549.4549999
sg21
I1
sg22
I22
ssS'ringwraith'
p714
(dp715
g124
S'quitting with: Quit: Villains are always up to villainous things!'
p716
sg126
F1316396838.8900001
sg127
I0
sg128
I0
ssS'fallout10mm'
p717
(dp718
g11
S'quitting with: Quit: Explosive decomprestion? Whats that....Aaaahhh!'
p719
sg13
F1316196321.4070001
sg14
I4487
sg15
I159752
ssS'tf|desktop|afk'
p720
(dp721
g612
S'changing nick to TF|Sleep'
p722
sg614
F1313661202.0220001
sg615
I36
sg616
I1117
ssS'lissa___'
p723
(dp724
g18
S'quitting with: Ping timeout'
p725
sg20
F1315533822.2539999
sg21
I0
sg22
I0
ssS'chr1s'
p726
(dp727
g124
S'joining #uespwiki'
p728
sg126
F1316396894.6010001
sg127
I0
sg128
I0
ssS'ejkorvett'
p729
(dp730
g124
S'quitting'
p731
sg126
F1316196447.674
sg127
I6
sg128
I150
ssS'lindaa'
p732
(dp733
g39
S'changing nick from Guest52763'
p734
sg41
F1316399385.1760001
sg42
I416
sg43
I4331
ssS'ambeco'
p735
(dp736
S'action'
p737
S'quitting with: Quit: http://www.mibbit.com ajax IRC Client'
p738
sS'secs'
p739
F1315003830.089
sS'lines'
p740
I14
sS'chars'
p741
I666
ssS'skah|terraria'
p742
(dp743
S'action'
p744
S'changing nick to Skah'
p745
sS'secs'
p746
F1305774171.2820001
sS'lines'
p747
I16
sS'chars'
p748
I458
ssS'alex'
p749
(dp750
g447
S'changing nick to Lupin'
p751
sg449
F1303751188.7590001
sg450
I99
sg451
I1757
ssS'taros'
p752
(dp753
g154
S'speaking in #internet'
p754
sg156
F1315336256.5280001
sg157
I51
sg158
I1316
ssS'db9`'
p755
(dp756
S'action'
p757
S'changing nick to db9'
p758
sS'secs'
p759
F1307501640.408
sS'lines'
p760
I55
sS'chars'
p761
I1426
ssS'l'
(dp762
g63
S'changing nick to Lupin'
p763
sg65
F1296064514.793
sg66
I18
sg67
I276
ssS'cartis-'
p764
(dp765
g176
S'quitting with: Ping timeout: 121 seconds'
p766
sg178
F1316318778.056
sg179
I0
sg180
I0
ssS'fallout|nv'
p767
(dp768
g87
S'changing nick to Fallout|Shower'
p769
sg89
F1301786350.122
sg90
I33
sg91
I946
ssS'ploosk'
p770
(dp771
g526
S'speaking in #boats'
p772
sg528
F1312851549.5810001
sg529
I612
sg530
I17571
ssS'guest49827'
p773
(dp774
g18
S'quitting with: Connection reset by peer'
p775
sg20
F1315622875.9289999
sg21
I0
sg22
I0
ssS'moneybags01'
p776
(dp777
g147
S'quitting with: Ping timeout: 121 seconds'
p778
sg149
F1298789310.027
sg150
I44
sg151
I803
ssS'|'
(dp779
g101
S'joining #internet'
p780
sg103
F1306385177.2320001
sg104
I245
sg105
I5593
ssS'alias\\'
p781
(dp782
g63
S'speaking in #boats'
p783
sg65
F1295746388.197
sg66
I21
sg67
I653
ssS'eugenesleep'
p784
(dp785
g176
S'changing nick to EugeneKay'
p786
sg178
F1316176794.161
sg179
I3
sg180
I102
ssS'w13'
p787
(dp788
g682
S'quitting with: Client closed the connection'
p789
sg684
F1314114606.73
sg685
I25
sg686
I1163
ssS'soobnauce'
p790
(dp791
g124
S'quitting with: Quit: Leaving'
p792
sg126
F1315355570.227
sg127
I1
sg128
I22
ssS'goose'
p793
(dp794
g440
S"quitting with: Quit: Staying alive can kill you, it's taken years off of my life."
p795
sg442
F1316308963.273
sg443
I0
sg444
I0
ssS'guest81635'
p796
(dp797
g131
S'changing nick to titsos'
p798
sg133
F1316094680.688
sg134
I0
sg135
I0
ssS'shadowfax'
p799
(dp800
g39
S'joining #boats'
p801
sg41
F1299026168.5810001
sg42
I125
sg43
I4537
ssS'partricke'
p802
(dp803
S'action'
p804
S'quitting with: Ping timeout'
p805
sS'secs'
p806
F1314438699.707
sS'lines'
p807
I107
sS'chars'
p808
I2841
ssS'nullpointerbot'
p809
(dp810
g282
S'quitting with: Ping timeout'
p811
sg284
F1305079957.783
sg285
I51
sg286
I445
ssS'shaddow'
p812
(dp813
g282
S'quitting with: Quit: http://www.mibbit.com ajax IRC Client'
p814
sg284
F1304851971.6730001
sg285
I164
sg286
I1940
ssS'asiqirl'
p815
(dp816
S'action'
p817
S'quitting with: Connection reset by peer'
p818
sS'secs'
p819
F1303317079.5250001
sS'lines'
p820
I12
sS'chars'
p821
I348
ssS'kai___'
p822
(dp823
S'action'
p824
S'changing nick to ChairWool'
p825
sS'secs'
p826
F1303582049.2809999
sS'lines'
p827
I11
sS'chars'
p828
I328
ssS'guest45707'
p829
(dp830
g18
S'changing nick to titsos'
p831
sg20
F1315656655.3800001
sg21
I0
sg22
I0
ssS'eugenekaway'
p832
(dp833
g262
S'changing nick to EugeneKay'
p834
sg264
F1316358489.974
sg265
I28
sg266
I745
ssS'god'
p835
(dp836
g817
S'quitting with: Quit: leaving'
p837
sg819
F1304230343.388
sg820
I89
sg821
I1989
ssS'eugenenothing'
p838
(dp839
g18
S'changing nick to EugeneEverything'
p840
sg20
F1315643825.2160001
sg21
I4
sg22
I50
ssS'sevre|lunch'
p841
(dp842
g124
S'changing nick to Sevre'
p843
sg126
F1315748359.984
sg127
I0
sg128
I0
ssS'america_fuck_yeah'
p844
(dp845
g94
S'changing nick to Herp|pasko|Derp'
p846
sg96
F1304382890.404
sg97
I47
sg98
I1193
ssS'jercos_'
p847
(dp848
g326
S'quitting with: Quit: Whee'
p849
sg328
F1312995154.0039999
sg329
I40
sg330
I1121
ssS'adward|away'
p850
(dp851
g11
S'changing nick to Adward'
p852
sg13
F1314474775.0350001
sg14
I130
sg15
I1779
ssS'sev|dayofdefeatsauce'
p853
(dp854
g18
S'changing nick to SevInTheShower'
p855
sg20
F1315515666.6470001
sg21
I0
sg22
I0
ssS'cuddlefish'
p856
(dp857
g49
S'quitting with: Quit: Leaving'
p858
sg51
F1302321512.1300001
sg52
I23
sg53
I572
ssS'alonzotg'
p859
(dp860
S'action'
p861
S'parting #uespwiki'
p862
sS'secs'
p863
F1312256344.6300001
sS'lines'
p864
I231
sS'chars'
p865
I13545
ssS'teksura'
p866
(dp867
g39
S'speaking in #necrolounge'
p868
sg41
F1315862127.4519999
sg42
I482
sg43
I25436
ssS'not_kindari'
p869
(dp870
g737
S'changing nick to Kindari'
p871
sg739
F1307383336.763
sg740
I14
sg741
I836
ssS'des|afk'
p872
(dp873
g401
S'changing nick to Desdemona'
p874
sg403
F1313639337.5209999
sg404
I92
sg405
I2141
ssS'blanketsincognito'
p875
(dp876
g32
S'changing nick to Blanketspace'
p877
sg34
F1305253318.0650001
sg35
I52
sg36
I2602
ssS'senor'
p878
(dp879
g411
S'quitting with: Quit: Leaving'
p880
sg413
F1297655032.721
sg414
I15
sg415
I482
ssS'lissa_____'
p881
(dp882
g18
S'quitting with: Ping timeout'
p883
sg20
F1315538929.053
sg21
I0
sg22
I0
ssS'warpzone'
p884
(dp885
g18
S'quitting with: Quit: WarpZone'
p886
sg20
F1316342415.053
sg21
I0
sg22
I0
ssS'randall'
p887
(dp888
g18
S'joining #bots'
p889
sg20
F1315986554.948
sg21
I0
sg22
I0
ssS'___'
p890
(dp891
g201
S'changing nick to Foo'
p892
sg203
F1312957733.8859999
sg204
I12
sg205
I346
ssS'ash'
p893
(dp894
g131
S'quitting with: Client Quit'
p895
sg133
F1315988800.0699999
sg134
I0
sg135
I0
ssS'efreak'
p896
(dp897
g39
S'joining #Equilibrium'
p898
sg41
F1315920423.3959999
sg42
I17
sg43
I426
ssS'adaway'
p899
(dp900
g124
S'quitting with: Ping timeout'
p901
sg126
F1316212388.029
sg127
I2
sg128
I14
ssS'samsmart_'
p902
(dp903
g18
S'changing nick to SamSmart'
p904
sg20
F1315523410.5309999
sg21
I0
sg22
I0
ssS'protoboy_'
p905
(dp906
g18
S'changing nick to Protoboy'
p907
sg20
F1315938284.5409999
sg21
I0
sg22
I0
ssS'you|work'
p908
(dp909
g378
S'quitting with: Ping timeout'
p910
sg380
F1312220519.8380001
sg381
I106
sg382
I5159
ssS'revenant'
p911
(dp912
g824
S'joining #necrolounge'
p913
sg826
F1316385272.681
sg827
I234
sg828
I6899
ssS'dogfort'
p914
(dp915
g63
S'changing nick to pasko'
p916
sg65
F1304994592.49
sg66
I649
sg67
I21859
ssS'guest97401'
p917
(dp918
g18
S'quitting with: Client Quit'
p919
sg20
F1315797603.641
sg21
I0
sg22
I0
ssS'lissa_________'
p920
(dp921
g18
S'changing nick to Lissa'
p922
sg20
F1315524328.914
sg21
I0
sg22
I0
ssS'crynomore'
p923
(dp924
g176
S'quitting with: Read error: Connection reset by peer'
p925
sg178
F1316366225.5220001
sg179
I1
sg180
I58
ssS'tf|desktop'
p926
(dp927
g124
S'changing nick to TF|Sleep'
p928
sg126
F1315391544.7520001
sg127
I0
sg128
I0
ssS'chairwool'
p929
(dp930
g430
S'quitting with: Quit: L O L'
p931
sg432
F1311557657.05
sg433
I1296
sg434
I29310
ssS'roddie'
p932
(dp933
g39
S'parting #uespwiki'
p934
sg41
F1302362883.112
sg42
I49
sg43
I1823
ssS'xul'
p935
(dp936
S'action'
p937
S'changing nick from xul_gone'
p938
sS'secs'
p939
F1315022975.214
sS'lines'
p940
I24
sS'chars'
p941
I397
ssS'fallout9mm'
p942
(dp943
g124
S'quitting with: Quit: Explosive decompresstion? Whats tha....AHHHHH!'
p944
sg126
F1315386005.355
sg127
I5
sg128
I169
ssS'proweler1'
p945
(dp946
g124
S'quitting with: Client closed the connection'
p947
sg126
F1316345405.823
sg127
I0
sg128
I0
ssS'willy_bum'
p948
(dp949
g447
S'quitting with: Quit: http://www.mibbit.com ajax IRC Client'
p950
sg449
F1303826284.451
sg450
I29
sg451
I710
ssS'jesus'
p951
(dp952
g447
S'quitting with: Quit: leaving'
p953
sg449
F1304227650.4219999
sg450
I53
sg451
I1100
ssS'profilebot'
p954
(dp955
g131
S'joining #bots'
p956
sg133
F1316098345.391
sg134
I0
sg135
I0
ssS'pasko|eve'
p957
(dp958
g333
S'getting kicked from #necrolounge by EugeneKay for: failure'
p959
sg335
F1304222230.303
sg336
I155
sg337
I4056
ssS'foksieloy'
p960
(dp961
g824
S'quitting with: Ping timeout: 121 seconds'
p962
sg826
F1316372997.1329999
sg827
I55
sg828
I2100
ssS'watuhboy'
p963
(dp964
g224
S'quitting with: Quit: The early bird may get the worm, but the second mouse gets the cheese'
p965
sg226
F1312633976.678
sg227
I27
sg228
I553
ssS'robinhood70'
p966
(dp967
g368
S'parting #uespwiki'
p968
sg370
F1302320316.5969999
sg371
I77
sg372
I5471
ssS'wolfie293'
p969
(dp970
g124
S'joining #devart'
p971
sg126
F1316400263.8789999
sg127
I0
sg128
I0
ssS'eugenebeer[4]'
p972
(dp973
g18
S'changing nick to EugeneBeer[5]'
p974
sg20
F1315769345.178
sg21
I0
sg22
I0
ssS'pippijn'
p975
(dp976
g154
S'speaking in #internet'
p977
sg156
F1316318538.7
sg157
I175
sg158
I4145
ssS'tf|out'
p978
(dp979
g11
S'quitting with: Ping timeout: 121 seconds'
p980
sg13
F1316330524.533
sg14
I36
sg15
I1521
ssS'the_holy_ghost'
p981
(dp982
g447
S'changing nick to hannerz'
p983
sg449
F1304228586.5910001
sg450
I73
sg451
I2166
ssS'hawke'
p984
(dp985
g101
S'parting #bots'
p986
sg103
F1314933148.8800001
sg104
I500
sg105
I20537
ssS'kuro'
p987
(dp988
g11
S'parting #Equilibrium'
p989
sg13
F1311462985.408
sg14
I40
sg15
I958
ssS'shawn'
p990
(dp991
g154
S'speaking in #internet'
p992
sg156
F1316390839.329
sg157
I752
sg158
I18459
ssS'tonux'
p993
(dp994
g124
S'quitting with: Quit: Leaving'
p995
sg126
F1316394936.7909999
sg127
I0
sg128
I0
ssS'tf|'
p996
(dp997
g39
S'speaking in #TRSpam'
p998
sg41
F1316395488.181
sg42
I1105
sg43
I35143
ssS'guest54088'
p999
(dp1000
g18
S'changing nick to Dritz'
p1001
sg20
F1315549200.924
sg21
I0
sg22
I0
ssS'adwork'
p1002
(dp1003
g131
S'changing nick to Adward'
p1004
sg133
F1316035712.7349999
sg134
I0
sg135
I0
ssS'ryn238'
p1005
(dp1006
g224
S'quitting with: Quit: Beware of programmers who carry screwdrivers.'
p1007
sg226
F1313847646.4619999
sg227
I306
sg228
I4995
ssS'cat|away'
p1008
(dp1009
g18
S'quitting with: Quit: Leaving.'
p1010
sg20
F1316234391.267
sg21
I0
sg22
I0
ssS'asbrandt'
p1011
(dp1012
g612
S'speaking in #necrolounge'
p1013
sg614
F1316396288.0250001
sg615
I38
sg616
I2904
ssS'artemios'
p1014
(dp1015
g39
S'quitting with: Read error: Connection reset by peer'
p1016
sg41
F1316381915.1300001
sg42
I876
sg43
I19757
ssS'slack'
p1017
(dp1018
g39
S'quitting with: Ping timeout'
p1019
sg41
F1311930592.3870001
sg42
I101
sg43
I3487
ssS'emsenn'
p1020
(dp1021
g25
S'joining #boats'
p1022
sg27
F1315495609.0190001
sg28
I3423
sg29
I112351
ssS'guest14042'
p1023
(dp1024
g18
S'quitting with: Ping timeout: 260 seconds'
p1025
sg20
F1315797591.5639999
sg21
I0
sg22
I0
ssS'guest74716'
p1026
(dp1027
g18
S'quitting with: Connection reset by peer'
p1028
sg20
F1315581882.898
sg21
I0
sg22
I0
ssS'nameless1'
p1029
(dp1030
g326
S'quitting with: Quit: leaving'
p1031
sg328
F1314486495.6040001
sg329
I13
sg330
I326
ssS'blanketspace_'
p1032
(dp1033
g447
S'changing nick to Blanketspace'
p1034
sg449
F1315102504.322
sg450
I75
sg451
I1942
ssS'r'
(dp1035
g63
S'changing nick to manicflamingo'
p1036
sg65
F1296008007.839
sg66
I14
sg67
I349
ssS'johhan'
p1037
(dp1038
g11
S'quitting with: Quit: ChatZilla 0.9.87 [Firefox 5.0/20110615151330]'
p1039
sg13
F1312661032.9189999
sg14
I2075
sg15
I55101
ssS'kinz'
p1040
(dp1041
g804
S'changing nick to SynDat'
p1042
sg806
F1314489007.0439999
sg807
I24
sg808
I776
ssS'chzo'
p1043
(dp1044
g440
S'parting #boats'
p1045
sg442
F1315506441.9089999
sg443
I2
sg444
I81
ssS'tonux_'
p1046
(dp1047
g18
S'quitting with: Quit: Leaving'
p1048
sg20
F1316299909.2539999
sg21
I0
sg22
I0
ssS'zylche'
p1049
(dp1050
g18
S'speaking in #boats'
p1051
sg20
F1316188591.174
sg21
I3
sg22
I79
ssS'auroranova'
p1052
(dp1053
g447
S'quitting with: Connection reset by peer'
p1054
sg449
F1303768651.3469999
sg450
I326
sg451
I6422
ssS'ejplaying'
p1055
(dp1056
g124
S'changing nick to EJnotOnPo'
p1057
sg126
F1315344617.766
sg127
I0
sg128
I0
ssS'lissa____'
p1058
(dp1059
g18
S'quitting with: Ping timeout'
p1060
sg20
F1315537545.0139999
sg21
I0
sg22
I0
ssS'cyadora'
p1061
(dp1062
g430
S'quitting with: Quit: Never put off until tomorrow something you can pay to have done faster.'
p1063
sg432
F1316396607.207
sg433
I123
sg434
I2244
ssS'loki'
p1064
(dp1065
g39
S'joining #uespwiki'
p1066
sg41
F1316381211.0220001
sg42
I78
sg43
I2719
ssS'captain_tf|planet'
p1067
(dp1068
g32
S'quitting with: Ping timeout: 121 seconds'
p1069
sg34
F1305184489.4000001
sg35
I23
sg36
I542
ssS'jercos'
p1070
(dp1071
g39
S'speaking in #boats'
p1072
sg41
F1316395888.809
sg42
I6349
sg43
I235980
ssS'holy_ghost'
p1073
(dp1074
g447
S'changing nick to The_Holy_Ghost'
p1075
sg449
F1303686756.3959999
sg450
I22
sg451
I480
ssS'tf|lab'
p1076
(dp1077
g11
S'quitting with: Quit: http://www.mibbit.com ajax IRC Client'
p1078
sg13
F1298960035.4749999
sg14
I51
sg15
I2025
ssS'self'
p1079
(dp1080
g39
S'quitting with: Quit: Self'
p1081
sg41
F1313038211.8699999
sg42
I236
sg43
I8964
ssS'raphidae'
p1082
(dp1083
g63
S'speaking in #devart'
p1084
sg65
F1301761161.783
sg66
I23
sg67
I637
ssS'zamiel'
p1085
(dp1086
g63
S'quitting with: Disconnected by services'
p1087
sg65
F1312940058.3180001
sg66
I56
sg67
I3589
ssS'sannse_'
p1088
(dp1089
g94
S'changing nick to Guest97401'
p1090
sg96
F1315797566.7460001
sg97
I50
sg98
I1841
ssS'guest62466'
p1091
(dp1092
g176
S'changing nick to titsos'
p1093
sg178
F1316263409.0650001
sg179
I0
sg180
I0
ssS'[o][o]'
p1094
(dp1095
g224
S'changing nick to EugeneKay'
p1096
sg226
F1304472668.9170001
sg227
I47
sg228
I1812
ssS'kyte'
p1097
(dp1098
g39
S'quitting with: Ping timeout: 258 seconds'
p1099
sg41
F1316397272.3929999
sg42
I4185
sg43
I176407
ssS'reverend789'
p1100
(dp1101
g63
S'quitting with: Client Quit'
p1102
sg65
F1316351812.7609999
sg66
I82
sg67
I2265
ssS'satomi'
p1103
(dp1104
g18
S'changing nick to Sarikitty'
p1105
sg20
F1316057111.493
sg21
I0
sg22
I0
ssS'hannerz'
p1106
(dp1107
g411
S'speaking in #boats'
p1108
sg413
F1316391091.6919999
sg414
I11537
sg415
I389669
ssS'zucchini'
p1109
(dp1110
g682
S'quitting with: Quit: http://www.mibbit.com ajax IRC Client'
p1111
sg684
F1313779483.059
sg685
I16
sg686
I396
ssS'sannse-away'
p1112
(dp1113
g861
S'quitting with: Ping timeout: 240 seconds'
p1114
sg863
F1299472403.1559999
sg864
I27
sg865
I1237
ssS'kaj'
p1115
(dp1116
g282
S'quitting with: Connection reset by peer'
p1117
sg284
F1305090410.329
sg285
I11
sg286
I149
ssS'kai'
p1118
(dp1119
g629
S'joining #boats'
p1120
sg631
F1315833665.1830001
sg632
I586
sg633
I15292
ssS'ivbela'
p1121
(dp1122
g18
S'joining #uespwiki'
p1123
sg20
F1315592960.1500001
sg21
I0
sg22
I0
ssS'jsp'
p1124
(dp1125
g131
S'quitting with: Quit: Leaving'
p1126
sg133
F1316375929.938
sg134
I2
sg135
I83
ssS'kat'
p1127
(dp1128
g309
S'quitting with: Ping timeout'
p1129
sg311
F1312306050.6989999
sg312
I277
sg313
I8725
ssS'gregoriev'
p1130
(dp1131
g39
S'quitting with: Ping timeout'
p1132
sg41
F1314504724.7479999
sg42
I19
sg43
I440
ssS'mistform'
p1133
(dp1134
g526
S'quitting with: Quit: '
p1135
sg528
F1311578677.7420001
sg529
I54
sg530
I1660
ssS'john_cusack'
p1136
(dp1137
g619
S'speaking in #necrolounge'
p1138
sg621
F1299484436.7260001
sg622
I153
sg623
I4243
ssS'tsutomu'
p1139
(dp1140
g11
S'quitting with: Client exited'
p1141
sg13
F1309885376.6570001
sg14
I134
sg15
I4301
ssS'neatchee|away'
p1142
(dp1143
g440
S'changing nick to neatchee|Swype'
p1144
sg442
F1316364708.0880001
sg443
I0
sg444
I0
ssS'ejonpogo'
p1145
(dp1146
g124
S'changing nick to EJKorvett'
p1147
sg126
F1315365804.1029999
sg127
I0
sg128
I0
ssS'artemis'
p1148
(dp1149
g234
S'joining #boats'
p1150
sg236
F1315833665.184
sg237
I620
sg238
I29918
ssS'ryn_'
p1151
(dp1152
g18
S'changing nick to RynRyn'
p1153
sg20
F1315513992.9630001
sg21
I1
sg22
I6
ssS'des|xfiles'
p1154
(dp1155
g214
S'changing nick to Desdemona'
p1156
sg216
F1313556980.6960001
sg217
I28
sg218
I493
ssS'guest16223'
p1157
(dp1158
g18
S'changing nick to titsos'
p1159
sg20
F1315748105.467
sg21
I0
sg22
I0
ssS'asus'
p1160
(dp1161
g131
S'quitting with: Quit: '
p1162
sg133
F1315904604.671
sg134
I1
sg135
I4
ssS'sigma'
p1163
(dp1164
g101
S'joining #bots'
p1165
sg103
F1312708118.3469999
sg104
I38
sg105
I647
ssS'jimino'
p1166
(dp1167
g18
S'joining #necrolounge'
p1168
sg20
F1315684095.2460001
sg21
I0
sg22
I0
ssS'boreeasbot'
p1169
(dp1170
g56
S'quitting with: Quit: BoreeasBot'
p1171
sg58
F1303521515.7179999
sg59
I106
sg60
I2855
ssS'desdenoma'
p1172
(dp1173
g94
S'changing nick to desdemona'
p1174
sg96
F1313967265.6849999
sg97
I11
sg98
I160
ssS'eugenephone'
p1175
(dp1176
g114
S'changing nick to EugeneKaway'
p1177
sg116
F1314980951.082
sg117
I17
sg118
I374
ssS'flechmen_disconnected'
p1178
(dp1179
g124
S'changing nick to Flechmen'
p1180
sg126
F1316383855.74
sg127
I0
sg128
I0
ssS'mib_zq75ou'
p1181
(dp1182
g70
S'quitting with: Quit: http://www.mibbit.com ajax IRC Client'
p1183
sg72
F1312760099.161
sg73
I20
sg74
I278
ssS'troy'
p1184
(dp1185
S'action'
p1186
S'quitting with: Quit: Leaving'
p1187
sS'secs'
p1188
F1311724443.075
sS'lines'
p1189
I117
sS'chars'
p1190
I5714
ssS'perfekt'
p1191
(dp1192
g411
S'quitting with: Quit: Pull the pin and count to what?'
p1193
sg413
F1297295708.4419999
sg414
I58
sg415
I1671
ssS'yazdmich'
p1194
(dp1195
g176
S'quitting with: Ping timeout'
p1196
sg178
F1316297029.1659999
sg179
I6
sg180
I59
ssS'ultros'
p1197
(dp1198
g131
S'changing nick to Sync'
p1199
sg133
F1316155838.2160001
sg134
I0
sg135
I0
ssS'dragonite'
p1200
(dp1201
g214
S'quitting with: Client exited'
p1202
sg216
F1309914657.562
sg217
I19
sg218
I776
ssS'arvisrend|thesis'
p1203
(dp1204
g87
S'quitting with: Ping timeout: 121 seconds'
p1205
sg89
F1304891912.763
sg90
I31
sg91
I1029
ssS'xul_gone'
p1206
(dp1207
g131
S'joining #boats'
p1208
sg133
F1315833664.9200001
sg134
I0
sg135
I0
ssS'ijiero'
p1209
(dp1210
g516
S'parting #uespwiki'
p1211
sg518
F1307303237.993
sg519
I61
sg520
I2886
ssS'slackfa'
p1212
(dp1213
g411
S'quitting with: Ping timeout: 260 seconds'
p1214
sg413
F1311930644.753
sg414
I192
sg415
I5294
ssS'skah'
p1215
(dp1216
g94
S'quitting with: Quit: http://www.mibbit.com ajax IRC Client'
p1217
sg96
F1306912090.6489999
sg97
I49
sg98
I1090
ssS'sevre'
p1218
(dp1219
g124
S'quitting with: Client closed the connection'
p1220
sg126
F1316123927.1730001
sg127
I0
sg128
I0
ssS'ensemm'
p1221
(dp1222
g114
S'changing nick to emsenn'
p1223
sg116
F1312473424.1919999
sg117
I162
sg118
I5389
ssS'chalic'
p1224
(dp1225
g612
S'quitting with: Quit: - nbs-irc 2.39 - www\x0f.nbs-irc\x0f.net -'
p1226
sg614
F1313878681.3050001
sg615
I40
sg616
I1159
ssS'pasko'
p1227
(dp1228
g11
S'speaking in #necrolounge'
p1229
sg13
F1316210788.6700001
sg14
I3233
sg15
I100791
ssS'loki|'
p1230
(dp1231
g176
S'changing nick to Loki'
p1232
sg178
F1316169789.079
sg179
I0
sg180
I0
ssS'lissa__'
p1233
(dp1234
g18
S'changing nick to Lissa'
p1235
sg20
F1315543537.3239999
sg21
I0
sg22
I0
ssS'db9'
p1236
(dp1237
g757
S'speaking in #boats'
p1238
sg759
F1307854661.493
sg760
I207
sg761
I6601
ssS'ravenent'
p1239
(dp1240
g124
S'changing nick to Revenant'
p1241
sg126
F1315988682.802
sg127
I0
sg128
I0
ssS'namelezz'
p1242
(dp1243
g629
S'getting kicked from #boats by nameless for: THERE CAN ONLY BE ONE'
p1244
sg631
F1311057335.0710001
sg632
I20
sg633
I503
ssS'fallout'
p1245
(dp1246
g94
S'changing nick to Fallout|Deadisland'
p1247
sg96
F1315540803.845
sg97
I174
sg98
I6377
ssS'resixian'
p1248
(dp1249
g18
S'joining #uespwiki'
p1250
sg20
F1315827620.862
sg21
I0
sg22
I0
ssS'dlarsh|work'
p1251
(dp1252
g554
S'changing nick to Dlarsh'
p1253
sg556
F1307648349.0810001
sg557
I28
sg558
I1492
ssS'andkore'
p1254
(dp1255
g447
S'quitting with: Quit: Leaving'
p1256
sg449
F1312248923.822
sg450
I13
sg451
I377
ssS'bofh'
p1257
(dp1258
g39
S'joining #boats'
p1259
sg41
F1315833665.1819999
sg42
I1208
sg43
I60636
ssS'general_crespin'
p1260
(dp1261
g131
S'changing nick from GeneralCrespin'
p1262
sg133
F1316197295.0550001
sg134
I0
sg135
I0
ssS'slamsteve'
p1263
(dp1264
g32
S'quitting with: Quit: SlamSteve'
p1265
sg34
F1305157564.835
sg35
I15
sg36
I380
ssS'sadface'
p1266
(dp1267
g63
S'changing nick to dogfort'
p1268
sg65
F1295828092.698
sg66
I16
sg67
I223
ssS'brik'
p1269
(dp1270
g94
S'joining #internet'
p1271
sg96
F1316363794.5
sg97
I16
sg98
I509
ssS'coldacid|away'
p1272
(dp1273
g124
S'changing nick to coldacid'
p1274
sg126
F1316353654.1210001
sg127
I0
sg128
I0
ssS'sarikitty'
p1275
(dp1276
g39
S'quitting with: Client closed the connection'
p1277
sg41
F1316335051.421
sg42
I50
sg43
I2287
ssS'scotticus'
p1278
(dp1279
g447
S'changing nick to ADK'
p1280
sg449
F1303723571.454
sg450
I26
sg451
I363
ssS'entomo'
p1281
(dp1282
g319
S'joining #necrolounge'
p1283
sg321
F1316347867.1919999
sg322
I109
sg323
I5329
ssS'sigma_'
p1284
(dp1285
g326
S'quitting with: Quit: :wq'
p1286
sg328
F1314226727.9000001
sg329
I66
sg330
I1380
ssS'lackofafokcal'
p1287
(dp1288
g49
S'parting #bots'
p1289
sg51
F1302299808.9630001
sg52
I73
sg53
I1018
ssS'rpeh'
p1290
(dp1291
g39
S'quitting with: Quit: Leaving'
p1292
sg41
F1315220036.7390001
sg42
I667
sg43
I33777
ssS'midori'
p1293
(dp1294
g124
S'parting #devart'
p1295
sg126
F1315340492.3610001
sg127
I0
sg128
I0
ssS'sanae'
p1296
(dp1297
g401
S'quitting with: Quit: ~ Trillian Astra - www.trillian.im ~'
p1298
sg403
F1296443321.5510001
sg404
I16
sg405
I1121
ssS'ap|away'
p1299
(dp1300
g824
S'joining #devart'
p1301
sg826
F1303837851.9860001
sg827
I37
sg828
I522
ssS'menelaus'
p1302
(dp1303
g411
S'quitting with: Quit: www.steve3d.co.uk - Images from a bored mind.'
p1304
sg413
F1299027538.9690001
sg414
I20
sg415
I380
ssS'spoonless'
p1305
(dp1306
g18
S'parting #bots'
p1307
sg20
F1315743663.1919999
sg21
I1
sg22
I25
ssS'vr7'
p1308
(dp1309
g124
S'joining #devart'
p1310
sg126
F1316366044.4070001
sg127
I0
sg128
I0
ssS'hawkcohen'
p1311
(dp1312
g124
S'parting #bots for: Leaving'
p1313
sg126
F1315363409.6440001
sg127
I1
sg128
I14
ssS'tf|class'
p1314
(dp1315
g131
S'changing nick to TF|'
p1316
sg133
F1316296790.934
sg134
I0
sg135
I0
ssS'lu\\'
p1317
(dp1318
g411
S'quitting with: Quit: Leaving'
p1319
sg413
F1301630566.5439999
sg414
I31
sg415
I1443
ssS'uespuser'
p1320
(dp1321
g39
S'quitting with: Client exited'
p1322
sg41
F1316240011.3699999
sg42
I922
sg43
I31068
ssS'guest38107'
p1323
(dp1324
g18
S'changing nick to wolli'
p1325
sg20
F1315554295.687
sg21
I0
sg22
I0
ssS'exxodium-'
p1326
(dp1327
g824
S'changing nick to Exxodium'
p1328
sg826
F1315720548.6989999
sg827
I142
sg828
I5684
ssS'addward'
p1329
(dp1330
g234
S'quitting with: Connection reset by peer'
p1331
sg236
F1315724348.9820001
sg237
I68
sg238
I966
ssS'zack'
p1332
(dp1333
g319
S'speaking in #boats'
p1334
sg321
F1313036632.28
sg322
I82
sg323
I1884
ssS'guest62933'
p1335
(dp1336
g131
S"quitting with: Quit: \x0f\x0312\xe2\x80\x94\x0314I\x0312-\x0315n\x0312-\x0315v\x0312-\x0300i\x0312-\x0300s\x0312-\x0315i\x0312-\x0315o\x0312-\x0314n\x0312\xe2\x80\x94\x0f 3.2 (July '10)"
p1337
sg133
F1316157518.5409999
sg134
I0
sg135
I0
ssS'generalcrespin'
p1338
(dp1339
g176
S'changing nick to General_Crespin'
p1340
sg178
F1316197295.0550001
sg179
I0
sg180
I0
ssS'cat1'
p1341
(dp1342
g124
S'changing nick to Cat'
p1343
sg126
F1315344541.6900001
sg127
I0
sg128
I0
ssS'flechmen_away'
p1344
(dp1345
g124
S'changing nick to Flechmen'
p1346
sg126
F1316395021.7939999
sg127
I0
sg128
I0
ssS'mrpink'
p1347
(dp1348
g70
S'quitting with: Quit: http://www.mibbit.com ajax IRC Client'
p1349
sg72
F1312905325.9489999
sg73
I22
sg74
I1730
ssS'polymath'
p1350
(dp1351
g619
S'changing nick to Desdemona'
p1352
sg621
F1300995843.24
sg622
I37
sg623
I1066
ssS'guest48665'
p1353
(dp1354
g18
S'quitting with: Client closed the connection'
p1355
sg20
F1315624777.937
sg21
I0
sg22
I0
ssS'fallout|deadisland'
p1356
(dp1357
g18
S'changing nick to Fallout10mm'
p1358
sg20
F1315631468.7609999
sg21
I25
sg22
I991
ssS'anti|laptop'
p1359
(dp1360
g447
S'quitting with: Quit: Leaving'
p1361
sg449
F1304388011.27
sg450
I42
sg451
I1149
ssS'johhaway'
p1362
(dp1363
g737
S'changing nick to Johhan'
p1364
sg739
F1309658890.723
sg740
I11
sg741
I511
ssS'massey'
p1365
(dp1366
g32
S'parting #TRSpam'
p1367
sg34
F1306389684.6259999
sg35
I192
sg36
I2855
ssS'we'
p1368
(dp1369
S'action'
p1370
S'changing nick to hannerz'
p1371
sS'secs'
p1372
F1312696812.2249999
sS'lines'
p1373
I29
sS'chars'
p1374
I716
ssS'saberuk|out'
p1375
(dp1376
g131
S'changing nick to SaberUK'
p1377
sg133
F1315927591.4749999
sg134
I0
sg135
I0
ssS'fallout|workingout'
p1378
(dp1379
g282
S'changing nick to Fallout10mm'
p1380
sg284
F1304810835.881
sg285
I11
sg286
I99
ssS'neatchee'
p1381
(dp1382
g440
S'changing nick to neatchee|Swype'
p1383
sg442
F1315494691.1530001
sg443
I0
sg444
I0
ssS'_3xp'
p1384
(dp1385
g77
S'parting #devart'
p1386
sg79
F1298714478.7820001
sg80
I15
sg81
I582
ssS'minibill'
p1387
(dp1388
g25
S'speaking in #boats'
p1389
sg27
F1305374683.582
sg28
I26
sg29
I1230
ssS'tyrion'
p1390
(dp1391
g234
S'quitting with: Quit: http://www.mibbit.com ajax IRC Client'
p1392
sg236
F1316319608.1070001
sg237
I145
sg238
I2904
ssS'atry'
p1393
(dp1394
g411
S'quitting with: Quit: http://www.mibbit.com ajax IRC Client'
p1395
sg413
F1315328337.4130001
sg414
I86
sg415
I2374
ssS'guest38217'
p1396
(dp1397
g176
S'changing nick to titsos'
p1398
sg178
F1316262687.658
sg179
I0
sg180
I0
ssS'mage'
p1399
(dp1400
g131
S'quitting with: Quit: When hungry, eat; When tired, sleep;'
p1401
sg133
F1316075636.3410001
sg134
I0
sg135
I0
ssS'local2'
p1402
(dp1403
g39
S'joining #uespwiki'
p1404
sg41
F1316401066.973
sg42
I83
sg43
I8493
ssS'wolli1'
p1405
(dp1406
g18
S'quitting with: Ping timeout: 121 seconds'
p1407
sg20
F1315704466.0109999
sg21
I0
sg22
I0
ssS'emoboy64'
p1408
(dp1409
g234
S'quitting with: Quit: If you think nobody cares, try missing a few payments'
p1410
sg236
F1313104717.0610001
sg237
I907
sg238
I26659
ssS'anonytroll'
p1411
(dp1412
g11
S'quitting with: Quit: Verlassend'
p1413
sg13
F1316373129.7049999
sg14
I726
sg15
I32164
ssS'andres|busyish'
p1414
(dp1415
g368
S'changing nick to Andres'
p1416
sg370
F1297304311.0179999
sg371
I86
sg372
I3367
ssS'scamp'
p1417
(dp1418
g39
S'quitting with: Quit: GNAR'
p1419
sg41
F1316377049.1029999
sg42
I543
sg43
I10730
ssS'averus'
p1420
(dp1421
g131
S'quitting with: Quit: '
p1422
sg133
F1315865248.53
sg134
I0
sg135
I0
ssS'al|university'
p1423
(dp1424
g18
S'changing nick to Alchemist'
p1425
sg20
F1315811841.349
sg21
I0
sg22
I0
ssS'probablykai'
p1426
(dp1427
g114
S'changing nick to probablyasleep'
p1428
sg116
F1312620644.099
sg117
I11
sg118
I275
ssS'riddle'
p1429
(dp1430
g39
S'quitting with: Quit: '
p1431
sg41
F1315885118.4920001
sg42
I187
sg43
I6129
ssS'optimiyu'
p1432
(dp1433
g114
S'quitting with: Quit: For the golden millennium'
p1434
sg116
F1312943560.427
sg117
I54
sg118
I1862
ssS'elliot'
p1435
(dp1436
g32
S'parting #uespwiki'
p1437
sg34
F1311397604.0280001
sg35
I105
sg36
I2738
ssS'iwakura'
p1438
(dp1439
g440
S'quitting'
p1440
sg442
F1315500847.3440001
sg443
I6
sg444
I340
ssS'bluaki'
p1441
(dp1442
g124
S'joining #Equilibrium'
p1443
sg126
F1316317085.1589999
sg127
I0
sg128
I0
ssS'anti'
p1444
(dp1445
g39
S'quitting with: Quit: Leaving'
p1446
sg41
F1312771092.1429999
sg42
I1939
sg43
I63862
ssS'yazdmich_'
p1447
(dp1448
g176
S'changing nick to yazdmich'
p1449
sg178
F1316292804.8759999
sg179
I0
sg180
I0
ssS'bofh|remote'
p1450
(dp1451
g101
S'speaking in #boats'
p1452
sg103
F1299984554.4519999
sg104
I11
sg105
I563
ssS'lissa_'
p1453
(dp1454
g18
S'quitting with: Ping timeout'
p1455
sg20
F1315545114.9330001
sg21
I0
sg22
I0
ssS'pasko|derp'
p1456
(dp1457
g49
S'quitting with: Quit: http://www.mibbit.com ajax IRC Client'
p1458
sg51
F1302460159.9590001
sg52
I18
sg53
I267
ssS'pasko|nakeds'
p1459
(dp1460
S'action'
p1461
S'changing nick to pasko'
p1462
sS'secs'
p1463
F1303365695.391
sS'lines'
p1464
I31
sS'chars'
p1465
I1114
ssS'edogy'
p1466
(dp1467
g101
S'quitting with: Quit: http://www.mibbit.com ajax IRC Client'
p1468
sg103
F1299781246.599
sg104
I12
sg105
I619
ssS'randomtime'
p1469
(dp1470
g39
S'changing nick to RansomTime'
p1471
sg41
F1316282415.8699999
sg42
I23
sg43
I560
ssS'alphur'
p1472
(dp1473
g18
S'quitting with: Quit: has joined'
p1474
sg20
F1315891429.4519999
sg21
I0
sg22
I0
ssS'lu'
p1475
(dp1476
g18
S'changing nick to Guest24785'
p1477
sg20
F1315749834.473
sg21
I0
sg22
I0
ssS'combined'
p1478
(dp1479
g234
S'quitting with: Quit: '
p1480
sg236
F1311622416.1889999
sg237
I505
sg238
I16460
ssS'sniper430_'
p1481
(dp1482
g131
S'quitting with: Client exited'
p1483
sg133
F1316033106.312
sg134
I0
sg135
I0
ssS'priski'
p1484
(dp1485
g131
S'speaking in #devart'
p1486
sg133
F1315988234.0220001
sg134
I53
sg135
I2654
ssS'dremorathunda'
p1487
(dp1488
g176
S'quitting with: Quit: http://www.mibbit.com ajax IRC Client'
p1489
sg178
F1316297935.345
sg179
I1
sg180
I15
ssS'f00d'
p1490
(dp1491
g234
S'quitting with: Quit: Sorry for upsetting you'
p1492
sg236
F1315974548.8770001
sg237
I11
sg238
I163
ssS'andres'
p1493
(dp1494
g39
S'changing nick from Andres|Zzzz'
p1495
sg41
F1314246670.783
sg42
I645
sg43
I21733
ssS'nrg'
p1496
(dp1497
g1186
S'quitting with: Quit: http://www.mibbit.com ajax IRC Client'
p1498
sg1188
F1311201822.8269999
sg1189
I14
sg1190
I275
ssS'lu2'
p1499
(dp1500
g18
S'changing nick from Guest86417'
p1501
sg20
F1316121944.839
sg21
I0
sg22
I0
ssS'miki'
p1502
(dp1503
g131
S'quitting with: Quit: Leaving'
p1504
sg133
F1315835390.9489999
sg134
I0
sg135
I0
ssS'lepr'
p1505
(dp1506
g629
S'joining #boats'
p1507
sg631
F1313691529.5239999
sg632
I34
sg633
I1401
ssS'flechmen'
p1508
(dp1509
g262
S'changing nick from Flechmen_Away'
p1510
sg264
F1316395021.7939999
sg265
I55
sg266
I3431
ssS'notthatfaggotiswear'
p1511
(dp1512
g114
S'changing nick to probablykai'
p1513
sg116
F1312620021.3800001
sg117
I31
sg118
I709
ssS'exxodium_'
p1514
(dp1515
g368
S'quitting with: Quit: Leaving'
p1516
sg370
F1315907287.8529999
sg371
I79
sg372
I1902
ssS'ikoru'
p1517
(dp1518
g612
S'quitting with: Quit: http://www.mibbit.com ajax IRC Client'
p1519
sg614
F1313706550.194
sg615
I32
sg616
I2206
ssS'crayboff'
p1520
(dp1521
g94
S'speaking in #boats'
p1522
sg96
F1314491279.312
sg97
I1795
sg98
I58781
ssS'calcium'
p1523
(dp1524
g49
S'quitting with: Client closed the connection'
p1525
sg51
F1302489359.8239999
sg52
I11
sg53
I236
ssS'bure1'
p1526
(dp1527
g282
S'joining #TRSpam'
p1528
sg284
F1314081175.3280001
sg285
I66
sg286
I1884
ssS'richter'
p1529
(dp1530
g176
S'changing nick to Sync'
p1531
sg178
F1316336263.464
sg179
I0
sg180
I0
ssS'eugenebeer[2]'
p1532
(dp1533
g18
S'changing nick to EugeneBeer[3]'
p1534
sg20
F1315763313.845
sg21
I0
sg22
I0
ssS'melic'
p1535
(dp1536
g18
S'joining #boats'
p1537
sg20
F1316154039.227
sg21
I0
sg22
I0
ssS'tf|afk'
p1538
(dp1539
g234
S'quitting with: Ping timeout: 121 seconds'
p1540
sg236
F1304742399.806
sg237
I37
sg238
I1368
ssS'ducky'
p1541
(dp1542
g672
S'parting #bots for: Leaving'
p1543
sg674
F1306107985.5190001
sg675
I25
sg676
I900
ssS'coonhoot'
p1544
(dp1545
g25
S'quitting with: Ping timeout: 121 seconds'
p1546
sg27
F1311540068.1889999
sg28
I616
sg29
I16193
ssS'blackbeltsaru'
p1547
(dp1548
g39
S'joining #TRSpam'
p1549
sg41
F1316386329.533
sg42
I202
sg43
I7370
ssS'operserv'
p1550
(dp1551
g131
S'kicking Exxodium from #necrolounge for: Teksura (This is for pinging me with your opreassion!)'
p1552
sg133
F1315861971.2360001
sg134
I0
sg135
I0
ssS'saberuk'
p1553
(dp1554
g70
S'speaking in #internet'
p1555
sg72
F1316174882.3299999
sg73
I74
sg74
I2159
ssS'kb9'
p1556
(dp1557
g124
S"quitting with: Quit: hey, wait! DON'T PUSH THAT *Click*  *@#$(*# NO CARRIER"
p1558
sg126
F1316141140.0610001
sg127
I0
sg128
I0
ssS'eugenekay'
p1559
(dp1560
g319
S'speaking in #necrolounge'
p1561
sg321
F1316400854.503
sg322
I6384
sg323
I218526
ssS'hallfiry'
p1562
(dp1563
g516
S'quitting with: Quit: http://www.mibbit.com ajax IRC Client'
p1564
sg518
F1300997237.092
sg519
I54
sg520
I2374
ssS'pasko1'
p1565
(dp1566
g131
S'changing nick to pasko'
p1567
sg133
F1316020990.8729999
sg134
I0
sg135
I0
ssS'tooly_'
p1568
(dp1569
g612
S'speaking in #bots'
p1570
sg614
F1314487431.7190001
sg615
I60
sg616
I2772
ssS'kizc'
p1571
(dp1572
g682
S'quitting with: Quit: Hard work pays off in the future, laziness pays off now'
p1573
sg684
F1316368333.1400001
sg685
I186
sg686
I11578
ssS'lind[a]a'
p1574
(dp1575
g176
S'changing nick to LinDaa'
p1576
sg178
F1316239031.059
sg179
I0
sg180
I0
ssS'jakash3'
p1577
(dp1578
g77
S'quitting with: Quit: Leaving'
p1579
sg79
F1314506518.4860001
sg80
I305
sg81
I8901
ssS'things'
p1580
(dp1581
g18
S'changing nick to sannse'
p1582
sg20
F1315797745.8069999
sg21
I0
sg22
I0
ssS'guest34438'
p1583
(dp1584
g124
S'changing nick to psychon'
p1585
sg126
F1315385204.016
sg127
I0
sg128
I0
ssS'blanketspace'
p1586
(dp1587
g447
S'quitting with: Connection reset by peer'
p1588
sg449
F1316168496.4449999
sg450
I1187
sg451
I35083
ssS'dlarsh'
p1589
(dp1590
g401
S'quitting with: Quit: Off Dealing With the Real World'
p1591
sg403
F1315267121.0150001
sg404
I196
sg405
I11350
ssS'desdemona'
p1592
(dp1593
g11
S'quitting with: Quit: '
p1594
sg13
F1315973871.059
sg14
I9584
sg15
I207255
ssS'coldacid'
p1595
(dp1596
g124
S'joining #uespwiki'
p1597
sg126
F1316382014.829
sg127
I0
sg128
I0
ssS'levelfourtyfour'
p1598
(dp1599
g11
S'quitting with: Client exited'
p1600
sg13
F1295491094.0439999
sg14
I33
sg15
I1067
ssS'neutron'
p1601
(dp1602
g388
S'quitting with: Ping timeout: 121 seconds'
p1603
sg390
F1305005538.609
sg391
I176
sg392
I3911
ssS'x2x'
p1604
(dp1605
g124
S'joining #bots'
p1606
sg126
F1315545433.9990001
sg127
I0
sg128
I0
ssS'ryn|tf2'
p1607
(dp1608
g214
S'changing nick to Ryn238'
p1609
sg216
F1312422271.8900001
sg217
I49
sg218
I713
ssS'ryn238_'
p1610
(dp1611
g214
S'changing nick to RynRyn'
p1612
sg216
F1313108269.0739999
sg217
I14
sg218
I176
ssS'majic'
p1613
(dp1614
g77
S'changing nick to Paprikachu'
p1615
sg79
F1315348621.3770001
sg80
I450
sg81
I14829
ssS'emoboy64|dinner'
p1616
(dp1617
g516
S'changing nick to Emoboy64'
p1618
sg518
F1300995759.859
sg519
I11
sg520
I233
ssS'guest31807'
p1619
(dp1620
g124
S'changing nick to Guest31807|away'
p1621
sg126
F1315391297.75
sg127
I0
sg128
I0
ssS'tohsaka_'
p1622
(dp1623
g18
S'changing nick to Tohsaka'
p1624
sg20
F1315611983.5339999
sg21
I0
sg22
I0
ssS'c0ol_her3tic'
p1625
(dp1626
g131
S'quitting with: Quit: Leaving'
p1627
sg133
F1316054146.743
sg134
I0
sg135
I0
ssS'guest20835'
p1628
(dp1629
g18
S'quitting with: Client closed the connection'
p1630
sg20
F1315626080.3759999
sg21
I0
sg22
I0
ssS'guest552'
p1631
(dp1632
g18
S'changing nick to Why'
p1633
sg20
F1315574287.325
sg21
I0
sg22
I0
ssS'sniper|lol'
p1634
(dp1635
g176
S'changing nick to Sniper430'
p1636
sg178
F1316283702.105
sg179
I0
sg180
I0
ssS'ejnotonpo'
p1637
(dp1638
g124
S'changing nick to EJKorvett'
p1639
sg126
F1315345346.6429999
sg127
I0
sg128
I0
ssS'lukisho_o'
p1640
(dp1641
g131
S'quitting with: Connection reset by peer'
p1642
sg133
F1316064272.4660001
sg134
I0
sg135
I0
ssS'paskos'
p1643
(dp1644
g447
S'changing nick to PASKO'
p1645
sg449
F1304468846.704
sg450
I102
sg451
I3033
ssS'salck'
p1646
(dp1647
g411
S'changing nick to slack'
p1648
sg413
F1298330234.5380001
sg414
I27
sg415
I414
ssS'pr3fatum'
p1649
(dp1650
g4
S'joining #boats'
p1651
sg6
F1315833665.184
sg7
I31
sg8
I948
ssS'parsonsda'
p1652
(dp1653
g124
S'quitting with: Remote host closed the connection'
p1654
sg126
F1315407985.9319999
sg127
I0
sg128
I0
ssS'gec[skeeper]'
p1655
(dp1656
g131
S'quitting with: Ping timeout: 121 seconds'
p1657
sg133
F1315952958.9530001
sg134
I0
sg135
I0
ssS'atry|'
p1658
(dp1659
g94
S'changing nick to Atreus'
p1660
sg96
F1316230171.1960001
sg97
I14
sg98
I176
ssS'neatchee|swype'
p1661
(dp1662
g440
S'changing nick from neatchee|AWAY'
p1663
sg442
F1316364708.0880001
sg443
I8
sg444
I139
ssS'where_'
p1664
(dp1665
g124
S'changing nick to where'
p1666
sg126
F1315344927.852
sg127
I0
sg128
I0
ssS'lupin_'
p1667
(dp1668
g861
S'changing nick to Lupin'
p1669
sg863
F1314485305.753
sg864
I31
sg865
I453
ssS'eugenebeer[5]'
p1670
(dp1671
g18
S'changing nick to EugeneBeer[6]'
p1672
sg20
F1315769386.3570001
sg21
I0
sg22
I0
ssS'hannerz_'
p1673
(dp1674
g411
S'quitting with: Quit: leaving'
p1675
sg413
F1305496060.8770001
sg414
I60
sg415
I1393
ssS'ransomtime'
p1676
(dp1677
g124
S'quitting with: Ping timeout: 121 seconds'
p1678
sg126
F1316388334.4790001
sg127
I0
sg128
I0
ssS'vincentvega'
p1679
(dp1680
g49
S'quitting with: Client exited'
p1681
sg51
F1302375857.948
sg52
I62
sg53
I1925
ssS'speady'
p1682
(dp1683
g39
S'quitting'
p1684
sg41
F1316040843.704
sg42
I15
sg43
I551
ssS'sonatawraith'
p1685
(dp1686
g124
S'changing nick to Ringwraith'
p1687
sg126
F1315780383.4679999
sg127
I0
sg128
I0
ssS'where|doingstuff'
p1688
(dp1689
g131
S'changing nick to where|Afk'
p1690
sg133
F1315977476.5699999
sg134
I0
sg135
I0
ssS'lissa______'
p1691
(dp1692
g18
S'changing nick to Lissa'
p1693
sg20
F1315540088.888
sg21
I0
sg22
I0
ssS'newton'
p1694
(dp1695
g234
S'speaking in #devart'
p1696
sg236
F1316191765.6860001
sg237
I1054
sg238
I23088
ssS'lisimba2'
p1697
(dp1698
g176
S'changing nick to Lisimba'
p1699
sg178
F1316378902.48
sg179
I0
sg180
I0
ssS'kingtarquin'
p1700
(dp1701
g147
S'speaking in #internet'
p1702
sg149
F1315957657.8759999
sg150
I517
sg151
I20246
ssS'tf|work'
p1703
(dp1704
g18
S'changing nick to TF|'
p1705
sg20
F1316156039.5120001
sg21
I0
sg22
I0
ssS'prokchip'
p1706
(dp1707
g612
S'getting kicked from #boats by nameless for: nameless'
p1708
sg614
F1313644089.0829999
sg615
I110
sg616
I2868
ssS'xes'
p1709
(dp1710
g554
S'quitting with: Quit: Leaving'
p1711
sg556
F1307921333.352
sg557
I15
sg558
I467
ssS'ad'
p1712
(dp1713
g94
S'quitting with: Ping timeout'
p1714
sg96
F1304406562.1059999
sg97
I21
sg98
I393
ssS'guestlounger'
p1715
(dp1716
g401
S'quitting with: Quit: http://www.mibbit.com ajax IRC Client'
p1717
sg403
F1307457544.7179999
sg404
I82
sg405
I2206
ssS'rynrynryn'
p1718
(dp1719
g18
S'changing nick to Ryn'
p1720
sg20
F1315513885.9230001
sg21
I8
sg22
I161
ssS'tf|vet'
p1721
(dp1722
g804
S'speaking in #TRSpam'
p1723
sg806
F1314502314.1229999
sg807
I13
sg808
I539
ssS'sevintheshower'
p1724
(dp1725
g18
S'changing nick to Sevre'
p1726
sg20
F1315780600.5639999
sg21
I0
sg22
I0
ssS'skynette'
p1727
(dp1728
g937
S'speaking in #boats'
p1729
sg939
F1316391091.9419999
sg940
I228
sg941
I11443
ssS'foo'
p1730
(dp1731
g282
S'quitting with: Quit: foo'
p1732
sg284
F1314506512.2679999
sg285
I76
sg286
I2634
ssS'alexandr1'
p1733
(dp1734
g1186
S'joining #uespwiki'
p1735
sg1188
F1311705513.0869999
sg1189
I21
sg1190
I1177
ssS'sp00kd'
p1736
(dp1737
g18
S'changing nick to sp00kz'
p1738
sg20
F1315834020.082
sg21
I0
sg22
I0
ssS'lupin'
p1739
(dp1740
g39
S'quitting with: Quit: Man who run behind car get exhausted'
p1741
sg41
F1316392585.675
sg42
I10043
sg43
I223923
ssS'adzbe'
p1742
(dp1743
g114
S'changing nick to abzde'
p1744
sg116
F1312411002.0450001
sg117
I59
sg118
I1317
ssS'sp00kz'
p1745
(dp1746
g214
S'changing nick from sp00kd'
p1747
sg216
F1315834020.082
sg217
I833
sg218
I16795
ssS'adk__'
p1748
(dp1749
S'action'
p1750
S'quitting with: Quit: Best thing about killing hookers is the make-up sex'
p1751
sS'secs'
p1752
F1316246671.9979999
sS'lines'
p1753
I15
sS'chars'
p1754
I1117
ssS'adk'
p1755
(dp1756
g39
S'speaking in #necrolounge'
p1757
sg41
F1316396053.6370001
sg42
I6212
sg43
I218998
ssS'sporks'
p1758
(dp1759
g234
S'joining #Equilibrium'
p1760
sg236
F1316241226.0699999
sg237
I20
sg238
I780
ssS'sev|makingdinner'
p1761
(dp1762
g131
S'quitting with: Client closed the connection'
p1763
sg133
F1315833262.5910001
sg134
I0
sg135
I0
ssS'guest62020'
p1764
(dp1765
g131
S'quitting with: Ping timeout: 259 seconds'
p1766
sg133
F1315808542.0480001
sg134
I0
sg135
I0
ssS'monique'
p1767
(dp1768
g309
S'parting #bots'
p1769
sg311
F1297811512.961
sg312
I44
sg313
I570
ssS'atry|away'
p1770
(dp1771
g39
S'changing nick to Atreus'
p1772
sg41
F1316367786.4219999
sg42
I530
sg43
I15143
ssS'snark'
p1773
(dp1774
g124
S'joining #bots'
p1775
sg126
F1316060819.698
sg127
I0
sg128
I0
ssS'gregoryn'
p1776
(dp1777
g234
S'joining #bots'
p1778
sg236
F1316390719.835
sg237
I295
sg238
I8818
ssS'plasticla'
p1779
(dp1780
g18
S'joining #devart'
p1781
sg20
F1316127438.4760001
sg21
I0
sg22
I0
ssS'aifarrah'
p1782
(dp1783
g39
S'quitting with: Quit: http://www.mibbit.com ajax IRC Client'
p1784
sg41
F1316218485.7550001
sg42
I15
sg43
I131
ssS'nappz'
p1785
(dp1786
g63
S'quitting with: Ping timeout: 121 seconds'
p1787
sg65
F1296360168.474
sg66
I18
sg67
I1284
ssS'chanserv'
p1788
(dp1789
S'action'
p1790
S'joining #uespdrama'
p1791
sS'secs'
p1792
F1316382566.029
sS'lines'
p1793
I0
sS'chars'
p1794
I0
ssS'shadow'
p1795
(dp1796
g526
S'parting #devart'
p1797
sg528
F1312996026.4330001
sg529
I36
sg530
I385
ssS'wakko214'
p1798
(dp1799
S'action'
p1800
S'quitting with: Client Quit'
p1801
sS'secs'
p1802
F1303680493.9519999
sS'lines'
p1803
I102
sS'chars'
p1804
I1929
ssS'vanity'
p1805
(dp1806
g131
S'quitting with: Ping timeout: 121 seconds'
p1807
sg133
F1316215117.0039999
sg134
I0
sg135
I0
ssS'adk_'
p1808
(dp1809
g262
S'speaking in #necrolounge'
p1810
sg264
F1316396301.4119999
sg265
I95
sg266
I3730
ssS'kaminoyouni'
p1811
(dp1812
g214
S'joining #uespwiki'
p1813
sg216
F1310791980.941
sg217
I50
sg218
I2783
ssS'dogfart'
p1814
(dp1815
g63
S'changing nick to dogfort'
p1816
sg65
F1295914524.6960001
sg66
I11
sg67
I311
ssS'chr1s_'
p1817
(dp1818
g176
S'quitting with: Ping timeout: 121 seconds'
p1819
sg178
F1316166466.835
sg179
I0
sg180
I0
ssS'eugenesomething'
p1820
(dp1821
g18
S'changing nick to EugeneNothing'
p1822
sg20
F1315614808.957
sg21
I8
sg22
I162
ssS'patrick'
p1823
(dp1824
g612
S'quitting with: Quit: Leaving'
p1825
sg614
F1315278246.4760001
sg615
I56
sg616
I1409
ssS'katrie'
p1826
(dp1827
g114
S'joining #boats'
p1828
sg116
F1316163096.3570001
sg117
I17
sg118
I266
ssS'sanity'
p1829
(dp1830
g11
S'quitting with: Quit: '
p1831
sg13
F1315537853.323
sg14
I69
sg15
I977
ssS'eugeneeverything'
p1832
(dp1833
g18
S'changing nick to EugeneKay'
p1834
sg20
F1315706496.7479999
sg21
I4
sg22
I168
ssS'spitfire'
p1835
(dp1836
g18
S'joining #bots'
p1837
sg20
F1315545433.997
sg21
I0
sg22
I0
ssS'nanakhiel'
p1838
(dp1839
g131
S'quitting with: Ping timeout: 265 seconds'
p1840
sg133
F1316271988.4030001
sg134
I0
sg135
I0
ssS'eugenek'
p1841
(dp1842
g262
S'changing nick to EugeneKay'
p1843
sg264
F1313671021.8329999
sg265
I72
sg266
I2409
ssS'eugenebeer[6]'
p1844
(dp1845
g18
S'changing nick to EugeNap'
p1846
sg20
F1315771120.53
sg21
I0
sg22
I0
ssS'why|away'
p1847
(dp1848
g131
S'changing nick to Why'
p1849
sg133
F1316027071.806
sg134
I0
sg135
I0
ssS'webs'
p1850
(dp1851
g147
S'quitting with: Quit: leaving'
p1852
sg149
F1312633792.0190001
sg150
I194
sg151
I5039
ssS'eugenepants'
p1853
(dp1854
g18
S'changing nick to EugeneSomething'
p1855
sg20
F1315578640.5539999
sg21
I25
sg22
I799
ssS'fallout10mm_'
p1856
(dp1857
g101
S'joining #necrolounge'
p1858
sg103
F1314252937.8380001
sg104
I11
sg105
I403
ssS'guest47915'
p1859
(dp1860
g18
S'quitting with: Client closed the connection'
p1861
sg20
F1315713628.5799999
sg21
I0
sg22
I0
ssS'zrvera'
p1862
(dp1863
g612
S'joining #devart'
p1864
sg614
F1316292785.8099999
sg615
I116
sg616
I4483
ssS'joah'
p1865
(dp1866
g94
S'quitting with: Quit: night'
p1867
sg96
F1316147379.704
sg97
I51
sg98
I647
ssS'blanket_'
p1868
(dp1869
g94
S'changing nick to Tek|Durpa'
p1870
sg96
F1304312062.2360001
sg97
I19
sg98
I639
ssS'chocobro'
p1871
(dp1872
g124
S'joining #uespwiki'
p1873
sg126
F1316347168.9330001
sg127
I0
sg128
I0
ssS'lissa'
p1874
(dp1875
g824
S'quitting with: Connection reset by peer'
p1876
sg826
F1315544292.1040001
sg827
I1156
sg828
I33042
ssS'alu'
p1877
(dp1878
g368
S'quitting with: Client exited'
p1879
sg370
F1298601924.125
sg371
I133
sg372
I6897
ssS'lidyaamilya'
p1880
(dp1881
g737
S'quitting with: G-Lined'
p1882
sg739
F1307104996.905
sg740
I11
sg741
I407
ssS'goga[oep]'
p1883
(dp1884
g18
S'joining #uespwiki'
p1885
sg20
F1315836699.825
sg21
I0
sg22
I0
ssS'tf|sleep'
p1886
(dp1887
g282
S'changing nick to TF|'
p1888
sg284
F1315940485.3399999
sg285
I31
sg286
I1445
ssS'guest81065'
p1889
(dp1890
g18
S'quitting with: Connection reset by peer'
p1891
sg20
F1315713860.8429999
sg21
I0
sg22
I0
ssS'bure'
p1892
(dp1893
g39
S'speaking in #TRSpam'
p1894
sg41
F1316395393.845
sg42
I1524
sg43
I39244
ssS'locutus'
p1895
(dp1896
g56
S'quitting with: Quit: Leaving'
p1897
sg58
F1303087956.8099999
sg59
I94
sg60
I2224
ssS'ferman'
p1898
(dp1899
g368
S'speaking in #necrolounge'
p1900
sg370
F1316390444.029
sg371
I245
sg372
I5558
ssS'sevre90210'
p1901
(dp1902
g18
S'quitting with: Client closed the connection'
p1903
sg20
F1316108029.2149999
sg21
I0
sg22
I0
ssS'dayes'
p1904
(dp1905
g39
S'quitting with: Ping timeout'
p1906
sg41
F1316157353.0599999
sg42
I2740
sg43
I77719
ssS'mjf25'
p1907
(dp1908
g554
S'quitting with: Quit: Make it idiot proof and someone will make a better idiot.'
p1909
sg556
F1307847138.2550001
sg557
I11
sg558
I275
ssS'adamlogan'
p1910
(dp1911
g272
S'quitting with: Quit: Leaving.'
p1912
sg274
F1309644972.5699999
sg275
I128
sg276
I4824
ssS'sari'
p1913
(dp1914
g94
S'joining #uespwiki'
p1915
sg96
F1316395791.194
sg97
I19
sg98
I1145
ssS'entomo1'
p1916
(dp1917
g18
S'quitting with: Quit: Page closed'
p1918
sg20
F1315584137.6589999
sg21
I0
sg22
I0
ssS'usc'
p1919
(dp1920
g131
S'quitting with: Ping timeout: 121 seconds'
p1921
sg133
F1316187275.141
sg134
I0
sg135
I0
ssS'kindari'
p1922
(dp1923
g401
S'speaking in #necrolounge'
p1924
sg403
F1316397676.609
sg404
I3466
sg405
I140844
ssS'guest72344'
p1925
(dp1926
g18
S'changing nick to wolli'
p1927
sg20
F1315704732.5829999
sg21
I0
sg22
I0
ssS'racoon'
p1928
(dp1929
g77
S'quitting with: Client exited'
p1930
sg79
F1298853250.9749999
sg80
I62
sg81
I1648
ssS'proweler'
p1931
(dp1932
g124
S'quitting with: Ping timeout: 121 seconds'
p1933
sg126
F1316385650.562
sg127
I0
sg128
I0
ssS'llamasniper'
p1934
(dp1935
g682
S'quitting with: Ping timeout'
p1936
sg684
F1314477914.2750001
sg685
I33
sg686
I701
ssS'lilmisschaoss'
p1937
(dp1938
g309
S'speaking in #boats'
p1939
sg311
F1302062334.349
sg312
I23
sg313
I574
ssS'snuggleknight'
p1940
(dp1941
g319
S'quitting with: Quit: Some folks are wise, and some otherwise.'
p1942
sg321
F1313903802.6340001
sg322
I542
sg323
I25634
ssS'guest10527'
p1943
(dp1944
g131
S'changing nick to Lukish'
p1945
sg133
F1316092456.0350001
sg134
I0
sg135
I0
ssS'guest60691'
p1946
(dp1947
g124
S'changing nick to wolli'
p1948
sg126
F1315388502.573
sg127
I0
sg128
I0
ssS'napout'
p1949
(dp1950
g272
S'changing nick to Fallout10mm'
p1951
sg274
F1301544867.6919999
sg275
I13
sg276
I193
ssS'dinner'
p1952
(dp1953
g18
S'changing nick to Efreak'
p1954
sg20
F1315734153.4519999
sg21
I0
sg22
I0
ssS'stonr'
p1955
(dp1956
g516
S'quitting'
p1957
sg518
F1302852345.701
sg519
I18
sg520
I627
ssS'profanum'
p1958
(dp1959
g131
S'quitting with: Connection reset by peer'
p1960
sg133
F1316350079.9070001
sg134
I1
sg135
I5
ssS'where'
p1961
(dp1962
g39
S'quitting with: Ping timeout: 121 seconds'
p1963
sg41
F1316379667.908
sg42
I1024
sg43
I18575
ssS'lisimba'
p1964
(dp1965
g18
S'changing nick from Lisimba2'
p1966
sg20
F1316378902.48
sg21
I0
sg22
I0
ssS'eintein'
p1967
(dp1968
g804
S'speaking in #boats'
p1969
sg806
F1316396881.069
sg807
I164
sg808
I2379
ssS'where|afk'
p1970
(dp1971
g131
S'quitting with: Ping timeout: 121 seconds'
p1972
sg133
F1316015133.155
sg134
I0
sg135
I0
ssS'wolli'
p1973
(dp1974
g124
S'quitting with: Connection reset by peer'
p1975
sg126
F1316082381.5280001
sg127
I0
sg128
I0
ssS'guest92525'
p1976
(dp1977
g131
S'quitting with: Quit: Leaving'
p1978
sg133
F1316081074.2320001
sg134
I0
sg135
I0
ssS'lilmisschaos'
p1979
(dp1980
g39
S'speaking in #boats'
p1981
sg41
F1316156684.6210001
sg42
I1469
sg43
I41894
ssS'guest2697'
p1982
(dp1983
g18
S'quitting with: Ping timeout: 121 seconds'
p1984
sg20
F1315749956.549
sg21
I0
sg22
I0
ssS'des|cello'
p1985
(dp1986
g401
S'changing nick to Desdemona'
p1987
sg403
F1309998219.773
sg404
I12
sg405
I315
ssS'mk_'
p1988
(dp1989
g176
S'quitting with: Quit: Reconnecting'
p1990
sg178
F1316247840.9349999
sg179
I0
sg180
I0
ssS'nameless'
p1991
(dp1992
g39
S'speaking in #boats'
p1993
sg41
F1316399523.563
sg42
I5895
sg43
I174904
ssS'des|dnd'
p1994
(dp1995
g201
S'changing nick to Desdemona'
p1996
sg203
F1313244974.3440001
sg204
I13
sg205
I298
ssS'suds_'
p1997
(dp1998
g18
S'quitting with: Client closed the connection'
p1999
sg20
F1316149935.0409999
sg21
I0
sg22
I0
ssS'gir'
p2000
(dp2001
g18
S'joining #Equilibrium'
p2002
sg20
F1315931868.7880001
sg21
I0
sg22
I0
ssS'agentp214'
p2003
(dp2004
g824
S'quitting with: Remote host closed the connection'
p2005
sg826
F1315618216.381
sg827
I177
sg828
I3440
ssS'tekbot'
p2006
(dp2007
g39
S'speaking in #necrolounge'
p2008
sg41
F1316393484.2420001
sg42
I160
sg43
I2748
ssS'you_'
p2009
(dp2010
g114
S'changing nick to You'
p2011
sg116
F1312396954.1659999
sg117
I11
sg118
I256
ssS'ares'
p2012
(dp2013
g282
S'speaking in #boats'
p2014
sg284
F1315807264.342
sg285
I180
sg286
I5625
ssS'sniffles'
p2015
(dp2016
g131
S'quitting with: Quit: ChatZilla 0.9.87 [Firefox 6.0.2/20110902133214]'
p2017
sg133
F1316065209.3010001
sg134
I10
sg135
I790
ssS'rich246'
p2018
(dp2019
g131
S'quitting with: Ping timeout: 264 seconds'
p2020
sg133
F1316191689.7909999
sg134
I2
sg135
I110
ssS'guest48156'
p2021
(dp2022
g18
S'quitting with: Connection reset by peer'
p2023
sg20
F1315745818.5569999
sg21
I0
sg22
I0
ssS'anti|athair'
p2024
(dp2025
g262
S'quitting with: Quit: Anti|Athair'
p2026
sg264
F1305424378.941
sg265
I18
sg266
I467
ssS'psychon'
p2027
(dp2028
g124
S'quitting with: Ping timeout: 121 seconds'
p2029
sg126
F1316384212.6199999
sg127
I27
sg128
I1569
ssS'adward|ipod'
p2030
(dp2031
g737
S'joining #necrolounge'
p2032
sg739
F1316214685.8429999
sg740
I34
sg741
I658
ssS'maasd'
p2033
(dp2034
g63
S'quitting with: Quit: When the chips are down, well, the buffalo is empty'
p2035
sg65
F1299052755.1199999
sg66
I280
sg67
I12987
ssS'why_'
p2036
(dp2037
g18
S'quitting with: Connection reset by peer'
p2038
sg20
F1316367429.7590001
sg21
I0
sg22
I0
ssS'manicflamingo'
p2039
(dp2040
g63
S'changing nick to Ryn'
p2041
sg65
F1296083084.911
sg66
I98
sg67
I1465
ssS'drakno'
p2042
(dp2043
g411
S'quitting with: Client exited'
p2044
sg413
F1297661064.244
sg414
I40
sg415
I913
ssS'sev|tf2'
p2045
(dp2046
g131
S'changing nick to Sevre'
p2047
sg133
F1315960839.8150001
sg134
I0
sg135
I0
ssS'tonymec'
p2048
(dp2049
g32
S'joining #devart'
p2050
sg34
F1316367823.2639999
sg35
I12
sg36
I373
ssS'anonyscamp'
p2051
(dp2052
g49
S'quitting with: Quit: Ex-Chat'
p2053
sg51
F1302385214.0710001
sg52
I13
sg53
I593
ssS'freelancer'
p2054
(dp2055
g234
S'speaking in #boats'
p2056
sg236
F1316157209.0239999
sg237
I3113
sg238
I82728
ssS'anti|mvc3'
p2057
(dp2058
g430
S'changing nick to Anti'
p2059
sg432
F1302660141.717
sg433
I39
sg434
I1278
ssS'shannon'
p2060
(dp2061
g11
S'quitting with: Quit: ChatZilla 0.9.86 [Firefox 3.6.13/20101203075014]'
p2062
sg13
F1295738413.194
sg14
I41
sg15
I1598
ssS'phallusin'
p2063
(dp2064
g131
S'quitting with: Read error: Operation timed out'
p2065
sg133
F1315932165.1429999
sg134
I0
sg135
I0
ssS'rush'
p2066
(dp2067
g63
S'speaking in #uespwiki'
p2068
sg65
F1299040210.4289999
sg66
I19
sg67
I671
ssS'marquis'
p2069
(dp2070
g124
S'changing nick to GrandMarquis'
p2071
sg126
F1315356413.151
sg127
I0
sg128
I0
ssS'guest58601'
p2072
(dp2073
g131
S'quitting with: Quit: Leaving'
p2074
sg133
F1315982744.5020001
sg134
I0
sg135
I0
ssS'maggo'
p2075
(dp2076
g224
S'quitting with: Ping timeout: 121 seconds'
p2077
sg226
F1316388765.52
sg227
I13
sg228
I633
ssS'hvalek'
p2078
(dp2079
g411
S'changing nick to Guest65427'
p2080
sg413
F1298603173.4419999
sg414
I413
sg415
I6000
ssS'bucket'
p2081
(dp2082
g39
S'joining #bots'
p2083
sg41
F1316139701.9590001
sg42
I443
sg43
I24222
ssS'godcheese|work'
p2084
(dp2085
g56
S'quitting with: Ping timeout: 260 seconds'
p2086
sg58
F1315688060.345
sg59
I43
sg60
I2313
ssS'aeven'
p2087
(dp2088
g411
S'parting #TRSpam'
p2089
sg413
F1304851152.1110001
sg414
I16
sg415
I362
ssS'coonhoot1'
p2090
(dp2091
S'action'
p2092
S'quitting with: Ping timeout: 121 seconds'
p2093
sS'secs'
p2094
F1307600073.0309999
sS'lines'
p2095
I26
sS'chars'
p2096
I575
ssS'ivbela1'
p2097
(dp2098
g18
S'quitting with: Ping timeout: 121 seconds'
p2099
sg20
F1315588459.8180001
sg21
I0
sg22
I0
ssS'dritz'
p2100
(dp2101
g234
S'speaking in #boats'
p2102
sg236
F1316391107.5190001
sg237
I5116
sg238
I221922
ssS'static'
p2103
(dp2104
g411
S'parting #uespwiki'
p2105
sg413
F1299407862.342
sg414
I132
sg415
I3510
ssS'snowwraith'
p2106
(dp2107
g124
S'changing nick to Ringwraith|Disgaea4'
p2108
sg126
F1316380043.171
sg127
I0
sg128
I0
ssS'fallout|persona4'
p2109
(dp2110
g612
S'changing nick to Fallout10mm'
p2111
sg614
F1313801092.2190001
sg615
I20
sg616
I625
ssS'eugenap'
p2112
(dp2113
g18
S'changing nick to EugeneKay'
p2114
sg20
F1315828182.5239999
sg21
I3
sg22
I35
ssS'glados'
p2115
(dp2116
g333
S"quitting with: Quit: There's science to do"
p2117
sg335
F1303946001.007
sg336
I14
sg337
I464
ssS'greentard'
p2118
(dp2119
g554
S'quitting with: Ping timeout: 121 seconds'
p2120
sg556
F1307689529.618
sg557
I52
sg558
I6962
ssS'wakkowarn'
p2121
(dp2122
g77
S'quitting with: Remote host closed the connection'
p2123
sg79
F1301451107.2249999
sg80
I339
sg81
I3754
ssS'abzde'
p2124
(dp2125
g39
S'speaking in #boats'
p2126
sg41
F1316399212.372
sg42
I4667
sg43
I92463
ssS'shmulik'
p2127
(dp2128
g18
S'joining #bots'
p2129
sg20
F1315547543.2590001
sg21
I0
sg22
I0
ssS'velothi'
p2130
(dp2131
g131
S'quitting with: Connection reset by peer'
p2132
sg133
F1316062945.6900001
sg134
I10
sg135
I338
ssS'protoboy'
p2133
(dp2134
g63
S'joining #uespwiki'
p2135
sg65
F1316400654.99
sg66
I56
sg67
I1868
ssS'clippy'
p2136
(dp2137
g18
S'changing nick to x2x'
p2138
sg20
F1315533919.404
sg21
I0
sg22
I0
ssS'dz_jad'
p2139
(dp2140
g124
S'quitting with: Quit: Leaving'
p2141
sg126
F1315360519.062
sg127
I0
sg128
I0
ssS'karjala_s29'
p2142
(dp2143
g77
S'quitting with: Ping timeout: 121 seconds'
p2144
sg79
F1305784069.5369999
sg80
I39
sg81
I2210
ssS'ev'
p2145
(dp2146
g411
S'joining #devart'
p2147
sg413
F1315513225.3329999
sg414
I345
sg415
I9515
ssS'sevre|reading'
p2148
(dp2149
g18
S'changing nick to Sevre'
p2150
sg20
F1315764078.9779999
sg21
I0
sg22
I0
ssS'lissasleep'
p2151
(dp2152
g447
S'speaking in #necrolounge'
p2153
sg449
F1303851820.1800001
sg450
I11
sg451
I315
ssS'al|sleep'
p2154
(dp2155
g18
S'quitting with: Quit: She smiles while she crushes me'
p2156
sg20
F1315866510.414
sg21
I0
sg22
I0
ssS'hisdem'
p2157
(dp2158
g87
S'quitting with: Quit: Textual IRC Client: http://www.textualapp.com/'
p2159
sg89
F1314468927.612
sg90
I199
sg91
I4234
ssS'chaos95'
p2160
(dp2161
g39
S'speaking in #boats'
p2162
sg41
F1316145320.733
sg42
I1187
sg43
I49142
ssS'tohsaka'
p2163
(dp2164
g18
S'changing nick from Tohsaka_'
p2165
sg20
F1315611983.5339999
sg21
I0
sg22
I0
ssS'sannse'
p2166
(dp2167
g319
S'quitting with: Ping timeout: 260 seconds'
p2168
sg321
F1316325763.155
sg322
I1658
sg323
I61525
ssS'mjf_'
p2169
(dp2170
g272
S'quitting with: Ping timeout'
p2171
sg274
F1307398950.5710001
sg275
I112
sg276
I2751
ssS'you'
p2172
(dp2173
g11
S'joining #boats'
p2174
sg13
F1315833664.9200001
sg14
I5136
sg15
I172890
ssS'higurashi'
p2175
(dp2176
g401
S'quitting with: Quit: All the world is yours to keep~ All you have to do is walk with me~'
p2177
sg403
F1316386916.454
sg404
I22
sg405
I702
ssS'mirrepp_'
p2178
(dp2179
g234
S'joining #devart'
p2180
sg236
F1316369301.973
sg237
I606
sg238
I18263
ssS'kai_'
p2181
(dp2182
g234
S'quitting with: Killed (NickServ (GHOST command used by nameless!root@mindjail.subluminal.net))'
p2183
sg236
F1311657003.217
sg237
I1029
sg238
I24280
ssS'artemis2'
p2184
(dp2185
g18
S'joining #boats'
p2186
sg20
F1316236601.2939999
sg21
I0
sg22
I0
ssS'hellow'
p2187
(dp2188
g629
S'quitting with: Ping timeout'
p2189
sg631
F1315506477.253
sg632
I28
sg633
I600
ssS'why'
p2190
(dp2191
g516
S'quitting with: Quit: Leaving'
p2192
sg518
F1316367374.9579999
sg519
I28
sg520
I568
ssS'andrew'
p2193
(dp2194
g131
S'quitting with: Quit: yay for annoying network notices'
p2195
sg133
F1315939459.925
sg134
I0
sg135
I0
ssS'mjf5'
p2196
(dp2197
g757
S'changing nick to mjf'
p2198
sg759
F1307409588.6110001
sg760
I80
sg761
I2415
ssS'pasko|naked'
p2199
(dp2200
g333
S'changing nick to pasko'
p2201
sg335
F1303968275.747
sg336
I49
sg337
I1257
ssS'samsmart'
p2202
(dp2203
g39
S'speaking in #necrolounge'
p2204
sg41
F1316395369.803
sg42
I4717
sg43
I130256
ssS'guest19425'
p2205
(dp2206
g176
S'changing nick to titsos'
p2207
sg178
F1316179275.7149999
sg179
I0
sg180
I0
ssS'rpeh_'
p2208
(dp2209
S'action'
p2210
S'changing nick to rpeh'
p2211
sS'secs'
p2212
F1302479681.8900001
sS'lines'
p2213
I13
sS'chars'
p2214
I318
ssS'vivithemage'
p2215
(dp2216
g124
S'quitting with: Client closed the connection'
p2217
sg126
F1315404294.0450001
sg127
I0
sg128
I0
ssS'gixxerman'
p2218
(dp2219
g131
S'quitting with: Ping timeout: 264 seconds'
p2220
sg133
F1316369597.872
sg134
I3
sg135
I50
ssS'exxodium'
p2221
(dp2222
g401
S'speaking in #necrolounge'
p2223
sg403
F1316393691.7590001
sg404
I3304
sg405
I110710
ssS'v3nd3tta`'
p2224
(dp2225
g70
S'quitting with: Quit: I HJACK /QUIT :D'
p2226
sg72
F1316363929.589
sg73
I20
sg74
I1316
ssS'adam'
p2227
(dp2228
g447
S'changing nick to Adward'
p2229
sg449
F1303749183.97
sg450
I126
sg451
I1992
ss.