(dp1
S'boreeasbot'
p2
(dp3
S'action'
p4
S'quitting with: Quit: BoreeasBot'
p5
sS'secs'
p6
F1303521515.7179999
sS'lines'
p7
I106
sS'chars'
p8
I2855
ssS'holy_grahl'
p9
(dp10
S'action'
p11
S'joining #TRSpam'
p12
sS'secs'
p13
F1316352031.8110001
sS'lines'
p14
I56
sS'chars'
p15
I1967
ssS'llamasnipertyper'
p16
(dp17
S'action'
p18
S'changing nick to RynRynRyn'
p19
sS'secs'
p20
F1315513815.54
sS'lines'
p21
I2
sS'chars'
p22
I7
ssS'caity'
p23
(dp24
S'action'
p25
S'speaking in #boats'
p26
sS'secs'
p27
F1313658173.493
sS'lines'
p28
I177
sS'chars'
p29
I5478
ssS'guest81065'
p30
(dp31
g18
S'quitting with: Connection reset by peer'
p32
sg20
F1315713860.8429999
sg21
I0
sg22
I0
ssS'haggz'
p33
(dp34
S'action'
p35
S'quitting with: Quit: http://www.mibbit.com ajax IRC Client'
p36
sS'secs'
p37
F1305196105.0469999
sS'lines'
p38
I13
sS'chars'
p39
I839
ssS'cartis^'
p40
(dp41
S'action'
p42
S'quitting with: Client closed the connection'
p43
sS'secs'
p44
F1316329584.0469999
sS'lines'
p45
I17
sS'chars'
p46
I281
ssS'gk'
p47
(dp48
g42
S'quitting with: Quit: Some folks are wise, and some otherwise.'
p49
sg44
F1305284075.4860001
sg45
I378
sg46
I16819
ssS'emily'
p50
(dp51
S'action'
p52
S'changing nick to where|Doingstuff'
p53
sS'secs'
p54
F1315967643.6459999
sS'lines'
p55
I84
sS'chars'
p56
I1691
ssS'boreeas'
p57
(dp58
g4
S'quitting with: Quit: The Game'
p59
sg6
F1311682547.175
sg7
I400
sg8
I7544
ssS'wormdrink'
p60
(dp61
S'action'
p62
S'quitting with: Ping timeout: 264 seconds'
p63
sS'secs'
p64
F1295978042.1849999
sS'lines'
p65
I16
sS'chars'
p66
I383
ssS'ephos'
p67
(dp68
S'action'
p69
S'quitting with: Client exited'
p70
sS'secs'
p71
F1312886632.0450001
sS'lines'
p72
I13
sS'chars'
p73
I389
ssS'tron_lega'
p74
(dp75
S'action'
p76
S'quitting with: Quit: ChatZilla 0.9.86 [Firefox 3.6.13/20101203075014]'
p77
sS'secs'
p78
F1298589084.2379999
sS'lines'
p79
I11
sS'chars'
p80
I306
ssS'megaman'
p81
(dp82
g62
S'quitting with: Client exited'
p83
sg64
F1295839621.813
sg65
I13
sg66
I319
ssS'nameless|starbucks'
p84
(dp85
S'action'
p86
S'quitting with: Quit: And now I go back to work'
p87
sS'secs'
p88
F1301881164.526
sS'lines'
p89
I20
sS'chars'
p90
I407
ssS'pandavskii'
p91
(dp92
S'action'
p93
S'parting #necrolounge'
p94
sS'secs'
p95
F1304465812.7720001
sS'lines'
p96
I28
sS'chars'
p97
I637
ssS'peavey'
p98
(dp99
S'action'
p100
S'joining #internet'
p101
sS'secs'
p102
F1316188444.0039999
sS'lines'
p103
I803
sS'chars'
p104
I22957
ssS'sev|dayofdefeatsauve'
p105
(dp106
g18
S'changing nick to Sev|DayofDefeatSauce'
p107
sg20
F1315515389.0829999
sg21
I0
sg22
I0
ssS'eugenebeer[3]'
p108
(dp109
g18
S'changing nick to EugeneBeer[4]'
p110
sg20
F1315764978.8829999
sg21
I0
sg22
I0
ssS'redct'
p111
(dp112
S'action'
p113
S'quitting with: Quit: redct'
p114
sS'secs'
p115
F1312698373.6400001
sS'lines'
p116
I21
sS'chars'
p117
I513
ssS'maas'
p118
(dp119
g62
S'quitting with: Quit: Light travels faster then sound, which is why some people appear bright, until you hear them speak'
p120
sg64
F1299052755.01
sg65
I152
sg66
I5703
ssS'fai'
p121
(dp122
S'action'
p123
S'quitting with: Client closed the connection'
p124
sS'secs'
p125
F1316395818.1459999
sS'lines'
p126
I0
sS'chars'
p127
I0
ssS'guest74896'
p128
(dp129
S'action'
p130
S'changing nick to titsos'
p131
sS'secs'
p132
F1315833217.109
sS'lines'
p133
I0
sS'chars'
p134
I0
ssS'mib_zq75ou'
p135
(dp136
g69
S'quitting with: Quit: http://www.mibbit.com ajax IRC Client'
p137
sg71
F1312760099.161
sg72
I20
sg73
I278
ssS'luigiman'
p138
(dp139
g130
S'joining #Equilibrium'
p140
sg132
F1316039468.04
sg133
I0
sg134
I0
ssS'guest82843'
p141
(dp142
g130
S'quitting with: Ping timeout: 121 seconds'
p143
sg132
F1316025158.905
sg133
I0
sg134
I0
ssS'atreus_'
p144
(dp145
S'action'
p146
S'joining #boats'
p147
sS'secs'
p148
F1315831903.0539999
sS'lines'
p149
I123
sS'chars'
p150
I3412
ssS'w00t'
p151
(dp152
S'action'
p153
S'speaking in #internet'
p154
sS'secs'
p155
F1315748307.6619999
sS'lines'
p156
I97
sS'chars'
p157
I3234
ssS'samsleep'
p158
(dp159
g11
S'changing nick to SamSmart'
p160
sg13
F1314030726.3269999
sg14
I18
sg15
I336
ssS'wolli1'
p161
(dp162
g18
S'quitting with: Ping timeout: 121 seconds'
p163
sg20
F1315704466.0109999
sg21
I0
sg22
I0
ssS'sev|dayofdefeatsauce'
p164
(dp165
g18
S'changing nick to SevInTheShower'
p166
sg20
F1315515666.6470001
sg21
I0
sg22
I0
ssS'mirrepp'
p167
(dp168
g42
S'quitting with: Quit: MirrePP'
p169
sg44
F1316200682.5829999
sg45
I968
sg46
I28435
ssS'guest31807|away'
p170
(dp171
g123
S'changing nick to coldacid'
p172
sg125
F1315539703.1240001
sg126
I0
sg127
I0
ssS'lu2'
p173
(dp174
g18
S'changing nick from Guest86417'
p175
sg20
F1316121944.839
sg21
I0
sg22
I0
ssS'guest40049'
p176
(dp177
g130
S'changing nick to Corevette789'
p178
sg132
F1316023689.7420001
sg133
I0
sg134
I0
ssS'atry|fail'
p179
(dp180
S'action'
p181
S'changing nick to Atry|'
p182
sS'secs'
p183
F1316229651.1059999
sS'lines'
p184
I1
sS'chars'
p185
I31
ssS'revan'
p186
(dp187
g130
S'changing nick to Shawn'
p188
sg132
F1315942320.039
sg133
I0
sg134
I0
ssS'sann'
p189
(dp190
g62
S'changing nick to sannse'
p191
sg64
F1316222446.4679999
sg65
I95
sg66
I2494
ssS'niarch'
p192
(dp193
g181
S'joining #devart'
p194
sg183
F1316271800.72
sg184
I0
sg185
I0
ssS'cookies'
p195
(dp196
g181
S'quitting with: Quit: '
p197
sg183
F1316294538.0469999
sg184
I4
sg185
I27
ssS'kai__'
p198
(dp199
g11
S'quitting with: Connection reset by peer'
p200
sg13
F1307918894.9849999
sg14
I203
sg15
I5446
ssS'minion'
p201
(dp202
g11
S'changing nick to Adward'
p203
sg13
F1310934462.3010001
sg14
I58
sg15
I1606
ssS'zeoinx'
p204
(dp205
S'action'
p206
S'quitting with: Quit: Leaving'
p207
sS'secs'
p208
F1312944581
sS'lines'
p209
I13
sS'chars'
p210
I773
ssS'sync'
p211
(dp212
g123
S'joining #Equilibrium'
p213
sg125
F1316398833.543
sg126
I0
sg127
I0
ssS'yacc'
p214
(dp215
g123
S'joining #uespwiki'
p216
sg125
F1316116289.7490001
sg126
I0
sg127
I0
ssS'john_234'
p217
(dp218
S'action'
p219
S'joining #devart'
p220
sS'secs'
p221
F1316393329.5899999
sS'lines'
p222
I69
sS'chars'
p223
I1156
ssS'zephyr|dev'
p224
(dp225
g11
S'changing nick to Zephyr'
p226
sg13
F1295242705.737
sg14
I11
sg15
I443
ssS'sithis'
p227
(dp228
S'action'
p229
S'quitting with: Ping timeout: 121 seconds'
p230
sS'secs'
p231
F1310713714.553
sS'lines'
p232
I60
sS'chars'
p233
I2814
ssS'tolwin'
p234
(dp235
g52
S'quitting with: Quit: Leaving'
p236
sg54
F1302243944.677
sg55
I17
sg56
I1119
ssS'joannac'
p237
(dp238
S'action'
p239
S'joining #boats'
p240
sS'secs'
p241
F1315833664.9200001
sS'lines'
p242
I760
sS'chars'
p243
I14087
ssS'des|work'
p244
(dp245
g219
S'quitting with: Quit: The computer fell asleep'
p246
sg221
F1314125030.0179999
sg222
I14
sg223
I239
ssS'calcium'
p247
(dp248
g52
S'quitting with: Client closed the connection'
p249
sg54
F1302489359.8239999
sg55
I11
sg56
I236
ssS'drazak'
p250
(dp251
g18
S'joining #bots'
p252
sg20
F1315545433.9979999
sg21
I0
sg22
I0
ssS'lennon'
p253
(dp254
g42
S'quitting with: Client exited'
p255
sg44
F1316375929.902
sg45
I40
sg46
I1497
ssS'sannn'
p256
(dp257
g113
S'quitting with: Quit: zzzzzzzzzzzzzzzzzzzzzzzz'
p258
sg115
F1312606145.573
sg116
I15
sg117
I512
ssS'gaycarrot'
p259
(dp260
g4
S'changing nick to StraightCucumber'
p261
sg6
F1303262288.832
sg7
I74
sg8
I3510
ssS'chibimoogle'
p262
(dp263
g42
S'speaking in #TRSpam'
p264
sg44
F1316380710.714
sg45
I344
sg46
I13066
ssS'pasko\\eve'
p265
(dp266
S'action'
p267
S'quitting with: Quit: http://www.mibbit.com ajax IRC Client'
p268
sS'secs'
p269
F1304208468.4100001
sS'lines'
p270
I67
sS'chars'
p271
I1786
ssS'nevet'
p272
(dp273
S'action'
p274
S'quitting with: Quit: '
p275
sS'secs'
p276
F1301779243.1340001
sS'lines'
p277
I31
sS'chars'
p278
I1507
ssS'des|afk'
p279
(dp280
S'action'
p281
S'changing nick to Desdemona'
p282
sS'secs'
p283
F1313639337.5209999
sS'lines'
p284
I92
sS'chars'
p285
I2141
ssS'legoless'
p286
(dp287
S'action'
p288
S'quitting with: Client exited'
p289
sS'secs'
p290
F1315952986.5139999
sS'lines'
p291
I26
sS'chars'
p292
I1271
ssS'guest73140'
p293
(dp294
g130
S'changing nick to wolli'
p295
sg132
F1315887017.29
sg133
I0
sg134
I0
ssS'chibimoogle1'
p296
(dp297
g130
S'changing nick to ChibiMoogle'
p298
sg132
F1316157487.2090001
sg133
I0
sg134
I0
ssS'pyrogun'
p299
(dp300
g11
S'changing nick to Sithis'
p301
sg13
F1298953776.6170001
sg14
I123
sg15
I6427
ssS'alchemist'
p302
(dp303
g18
S'quitting with: Ping timeout: 121 seconds'
p304
sg20
F1316046025.7490001
sg21
I0
sg22
I0
ssS'k'
(dp305
g62
S'quitting with: Quit: Do fish get thirsty?'
p306
sg64
F1296085821.6340001
sg65
I23
sg66
I580
ssS'sevre|me2'
p307
(dp308
g123
S'changing nick to Sevre|lunch'
p309
sg125
F1315409228.8770001
sg126
I0
sg127
I0
ssS'atry|test'
p310
(dp311
g146
S'changing nick to Atry_|away'
p312
sg148
F1298920040.118
sg149
I21
sg150
I260
ssS'gl'
p313
(dp314
S'action'
p315
S'joining #Aetherius'
p316
sS'secs'
p317
F1298976142.523
sS'lines'
p318
I22
sS'chars'
p319
I816
ssS'sniper430'
p320
(dp321
g11
S'joining #Equilibrium'
p322
sg13
F1316379785.8069999
sg14
I115
sg15
I3033
ssS'grandmarquis'
p323
(dp324
S'action'
p325
S'joining #necrolounge'
p326
sS'secs'
p327
F1316400628.016
sS'lines'
p328
I208
sS'chars'
p329
I8660
ssS'chaos95_'
p330
(dp331
S'action'
p332
S'quitting with: Quit: http://www.mibbit.com ajax IRC Client'
p333
sS'secs'
p334
F1305530490.8269999
sS'lines'
p335
I15
sS'chars'
p336
I460
ssS'arvisrend|codingtheory'
p337
(dp338
S'action'
p339
S'changing nick to arvisrend'
p340
sS'secs'
p341
F1303941575.1589999
sS'lines'
p342
I11
sS'chars'
p343
I168
ssS'wigbot'
p344
(dp345
g42
S'speaking in #necrolounge'
p346
sg44
F1316393481.1800001
sg45
I1262
sg46
I57372
ssS'hisdem_'
p347
(dp348
g86
S'quitting with: Remote host closed the connection'
p349
sg88
F1302566482.7809999
sg89
I15
sg90
I1120
ssS'medved'
p350
(dp351
g62
S'quitting with: Quit: http://www.mibbit.com ajax IRC Client'
p352
sg64
F1297639265.918
sg65
I135
sg66
I6421
ssS'guest24785'
p353
(dp354
g18
S'changing nick to Lu2'
p355
sg20
F1315785396.652
sg21
I0
sg22
I0
ssS'kindari|work'
p356
(dp357
g42
S'changing nick to k'
p358
sg44
F1295985236.902
sg45
I92
sg46
I3325
ssS'joshua'
p359
(dp360
g123
S'quitting with: Quit: has joined'
p361
sg125
F1316393361.28
sg126
I0
sg127
I0
ssS'sniper430|lol'
p362
(dp363
g18
S'changing nick to Sniper430'
p364
sg20
F1315875477.6040001
sg21
I0
sg22
I0
ssS'spooks'
p365
(dp366
S'action'
p367
S'joining #boats'
p368
sS'secs'
p369
F1313692975.707
sS'lines'
p370
I2516
sS'chars'
p371
I67314
ssS'arvisrend'
p372
(dp373
S'action'
p374
S'changing nick to arvisrend|afk'
p375
sS'secs'
p376
F1311630031.1300001
sS'lines'
p377
I182
sS'chars'
p378
I6069
ssS'lajla'
p379
(dp380
g123
S'quitting with: Ping timeout: 264 seconds'
p381
sg125
F1316218484.654
sg126
I0
sg127
I0
ssS'zrvera'
p382
(dp383
S'action'
p384
S'joining #devart'
p385
sS'secs'
p386
F1316292785.8099999
sS'lines'
p387
I116
sS'chars'
p388
I4483
ssS'w00t_'
p389
(dp390
S'action'
p391
S'speaking in #internet'
p392
sS'secs'
p393
F1313138539.0929999
sS'lines'
p394
I15
sS'chars'
p395
I536
ssS'guest31807|away|away'
p396
(dp397
g18
S'changing nick to Guest31807|away'
p398
sg20
F1315532829.0739999
sg21
I0
sg22
I0
ssS'paprikachu'
p399
(dp400
S'action'
p401
S'changing nick to Pogs'
p402
sS'secs'
p403
F1316019652.3369999
sS'lines'
p404
I178
sS'chars'
p405
I4383
ssS'ongoingwhy'
p406
(dp407
g18
S'quitting with: Client closed the connection'
p408
sg20
F1315816458.767
sg21
I3
sg22
I155
ssS'tooly'
p409
(dp410
g11
S'quitting with: Ping timeout'
p411
sg13
F1316335868.9330001
sg14
I36
sg15
I869
ssS'duck'
p412
(dp413
g281
S'joining #internet'
p414
sg283
F1305850324.1259999
sg284
I35
sg285
I755
ssS'lizzy'
p415
(dp416
g76
S'quitting with: Quit: ooOOoo, what does this button do?!'
p417
sg78
F1316369308.8670001
sg79
I274
sg80
I4415
ssS'nin10doh'
p418
(dp419
S'action'
p420
S'quitting with: Quit: http://www.mibbit.com ajax IRC Client'
p421
sS'secs'
p422
F1297723592.487
sS'lines'
p423
I13
sS'chars'
p424
I479
ssS'lime'
p425
(dp426
g18
S'quitting with: Ping timeout'
p427
sg20
F1315985415.326
sg21
I0
sg22
I0
ssS'michaleson'
p428
(dp429
g374
S'quitting with: Quit: http://www.mibbit.com ajax IRC Client'
p430
sg376
F1307462880.177
sg377
I35
sg378
I847
ssS'shadowdaemon'
p431
(dp432
g367
S'joining #boats'
p433
sg369
F1315833664.918
sg370
I25
sg371
I730
ssS'josh|lionaire'
p434
(dp435
g239
S'quitting with: Client exited'
p436
sg241
F1316378634.7579999
sg242
I19
sg243
I299
ssS'godcheese'
p437
(dp438
S'action'
p439
S'joining #necrolounge'
p440
sS'secs'
p441
F1316362349.467
sS'lines'
p442
I472
sS'chars'
p443
I24999
ssS'nazgjunk'
p444
(dp445
g11
S'joining #bots'
p446
sg13
F1315545088.668
sg14
I21
sg15
I762
ssS'haskillbot'
p447
(dp448
S'action'
p449
S'joining #necrolounge'
p450
sS'secs'
p451
F1316383301.451
sS'lines'
p452
I0
sS'chars'
p453
I0
ssS'fallout|modding'
p454
(dp455
S'action'
p456
S'changing nick to Anthony'
p457
sS'secs'
p458
F1303717524.2460001
sS'lines'
p459
I14
sS'chars'
p460
I501
ssS'guest85229'
p461
(dp462
g18
S'changing nick to titsos'
p463
sg20
F1315515668.8340001
sg21
I0
sg22
I0
ssS'blackbeltsaru'
p464
(dp465
g42
S'joining #TRSpam'
p466
sg44
F1316386329.533
sg45
I202
sg46
I7370
ssS'snarky'
p467
(dp468
g18
S'changing nick to snark'
p469
sg20
F1315801202.404
sg21
I0
sg22
I0
ssS'asiekierka'
p470
(dp471
g52
S'quitting with: Ping timeout'
p472
sg54
F1302298236.951
sg55
I27
sg56
I510
ssS'adward'
p473
(dp474
g42
S'quitting with: Quit: Leaving'
p475
sg44
F1316385007.2739999
sg45
I5862
sg46
I100201
ssS'penis'
p476
(dp477
g456
S'quitting with: Quit: http://www.mibbit.com ajax IRC Client'
p478
sg458
F1313022417.885
sg459
I24
sg460
I538
ssS'sirlagalot'
p479
(dp480
g123
S'changing nick to Dinner'
p481
sg125
F1315707519.122
sg126
I0
sg127
I0
ssS'lpzm'
p482
(dp483
g420
S'quitting with: Read error: Connection reset by peer'
p484
sg422
F1313070926.6129999
sg423
I85
sg424
I2893
ssS'sculptor'
p485
(dp486
g130
S'quitting with: Quit: KVIrc 4.0.4 Insomnia http://www.kvirc.net/'
p487
sg132
F1316381215.2409999
sg133
I0
sg134
I0
ssS'mf'
p488
(dp489
g206
S'quitting with: Quit: KVIrc Insomnia 4.0.0, revision: 3900, sources date: 20100125, built on: 2011-03-15 15:32:03 UTC http://www.kvirc.net/'
p490
sg208
F1313185113.9159999
sg209
I33
sg210
I623
ssS'kyte2'
p491
(dp492
g42
S'quitting with: Ping timeout: 252 seconds'
p493
sg44
F1316328402.8570001
sg45
I36
sg46
I2070
ssS'krusty|away'
p494
(dp495
g35
S'changing nick to Krusty'
p496
sg37
F1315765579.2539999
sg38
I42
sg39
I1728
ssS'atry|pidgin'
p497
(dp498
g52
S'parting #StageCrew'
p499
sg54
F1302558353.6659999
sg55
I33
sg56
I913
ssS'des'
p500
(dp501
g113
S'quitting with: Quit: http://www.mibbit.com ajax IRC Client'
p502
sg115
F1312351408.72
sg116
I24
sg117
I701
ssS'mk'
p503
(dp504
g401
S'joining #internet'
p505
sg403
F1316247843.9219999
sg404
I1465
sg405
I37069
ssS'cat'
p506
(dp507
g42
S'quitting with: Client closed the connection'
p508
sg44
F1316390852.0320001
sg45
I535
sg46
I15316
ssS'uli'
p509
(dp510
g130
S'changing nick to usc'
p511
sg132
F1315917392.3429999
sg133
I0
sg134
I0
ssS'xhu'
p512
(dp513
g123
S'quitting with: Quit: Cavemen win.'
p514
sg125
F1316266492.681
sg126
I1
sg127
I4
ssS'corevette789'
p515
(dp516
g42
S'speaking in #necrolounge'
p517
sg44
F1316393529.4360001
sg45
I1542
sg46
I46521
ssS'foksieyl'
p518
(dp519
S'action'
p520
S'joining #uespwiki'
p521
sS'secs'
p522
F1316372850.108
sS'lines'
p523
I34
sS'chars'
p524
I1275
ssS'ap214'
p525
(dp526
g520
S'quitting with: Ping timeout: 264 seconds'
p527
sg522
F1309620313.187
sg523
I68
sg524
I1315
ssS'emsenn_'
p528
(dp529
S'action'
p530
S'quitting with: Quit: Lost terminal'
p531
sS'secs'
p532
F1311740751.25
sS'lines'
p533
I391
sS'chars'
p534
I11682
ssS'tf|slep'
p535
(dp536
g18
S'changing nick to TF|Work'
p537
sg20
F1315799336.855
sg21
I0
sg22
I0
ssS'gir'
p538
(dp539
g18
S'joining #Equilibrium'
p540
sg20
F1315931868.7880001
sg21
I0
sg22
I0
ssS'suds'
p541
(dp542
g123
S'joining #uespwiki'
p543
sg125
F1316235325.27
sg126
I0
sg127
I0
ssS'spb'
p544
(dp545
g146
S'joining #internet'
p546
sg148
F1315599511.359
sg149
I51
sg150
I2084
ssS'hydrogen'
p547
(dp548
g123
S'quitting with: Connection reset by peer'
p549
sg125
F1316135398.1800001
sg126
I0
sg127
I0
ssS'krusty|movie'
p550
(dp551
g239
S'quitting with: Client exited'
p552
sg241
F1315006021.9990001
sg242
I41
sg243
I1714
ssS'ryn'
p553
(dp554
g42
S'quitting with: Quit: When in doubt, use C4.'
p555
sg44
F1316118913.6800001
sg45
I2420
sg46
I38885
ssS'guest15739'
p556
(dp557
g130
S'changing nick to Corevette789'
p558
sg132
F1316025092.6730001
sg133
I0
sg134
I0
ssS'mapd'
p559
(dp560
S'action'
p561
S'quitting with: Quit: '
p562
sS'secs'
p563
F1307749150.6010001
sS'lines'
p564
I99
sS'chars'
p565
I1569
ssS'atreus'
p566
(dp567
S'action'
p568
S'speaking in #necrolounge'
p569
sS'secs'
p570
F1316400885.405
sS'lines'
p571
I13661
sS'chars'
p572
I343694
ssS'peregrine'
p573
(dp574
g449
S'joining #devart'
p575
sg451
F1316383300.1789999
sg452
I0
sg453
I0
ssS'geekthras'
p576
(dp577
g11
S'quitting with: Ping timeout'
p578
sg13
F1313827686.4949999
sg14
I50
sg15
I1310
ssS'theprophetgaamer'
p579
(dp580
g181
S'parting #uespwiki'
p581
sg183
F1316295799.927
sg184
I25
sg185
I1328
ssS'pogs'
p582
(dp583
g113
S'speaking in #internet'
p584
sg115
F1316195113.431
sg116
I210
sg117
I7458
ssS'aminor'
p585
(dp586
g113
S'quitting with: Quit: '
p587
sg115
F1312060436.993
sg116
I50
sg117
I2046
ssS'eugenesleep'
p588
(dp589
g181
S'changing nick to EugeneKay'
p590
sg183
F1316176794.161
sg184
I3
sg185
I102
ssS'lan'
p591
(dp592
g62
S'changing nick to DrWily'
p593
sg64
F1295834433.9389999
sg65
I12
sg66
I116
ssS'guest16908'
p594
(dp595
g130
S'changing nick to Lu2'
p596
sg132
F1315835155.3829999
sg133
I0
sg134
I0
ssS'plasticla'
p597
(dp598
g18
S'joining #devart'
p599
sg20
F1316127438.4760001
sg21
I0
sg22
I0
ssS'optimisticcynic'
p600
(dp601
g530
S'joining #boats'
p602
sg532
F1315833664.9189999
sg533
I1979
sg534
I71088
ssS'tea_girl'
p603
(dp604
g439
S'quitting with: G-Lined'
p605
sg441
F1302800293.7720001
sg442
I14
sg443
I476
ssS'megaman_x'
p606
(dp607
g181
S'quitting with: Ping timeout: 121 seconds'
p608
sg183
F1316281085.632
sg184
I0
sg185
I0
ssS'guest28219'
p609
(dp610
g18
S'changing nick to titsos'
p611
sg20
F1315668225.7390001
sg21
I0
sg22
I0
ssS'sevre|lol'
p612
(dp613
g18
S'quitting with: Client closed the connection'
p614
sg20
F1315697125.1589999
sg21
I0
sg22
I0
ssS'a'
(dp615
g62
S'changing nick to Lupin'
p616
sg64
F1302957178.8529999
sg65
I28
sg66
I471
ssS'hydronic'
p617
(dp618
g384
S'quitting'
p619
sg386
F1315584996.073
sg387
I147
sg388
I2542
ssS'mjf'
p620
(dp621
S'action'
p622
S'quitting with: Quit: Easy as 3.14159265358979323846... '
p623
sS'secs'
p624
F1316386725.908
sS'lines'
p625
I9350
sS'chars'
p626
I214645
ssS'eh-live'
p627
(dp628
g35
S'quitting with: Connection reset by peer'
p629
sg37
F1305283657.6659999
sg38
I12
sg39
I847
ssS'_0x44'
p630
(dp631
S'action'
p632
S'speaking in #boats'
p633
sS'secs'
p634
F1315514879.6730001
sS'lines'
p635
I255
sS'chars'
p636
I11003
ssS'guest52763'
p637
(dp638
g181
S'changing nick to LinDaa'
p639
sg183
F1316399385.1760001
sg184
I0
sg185
I0
ssS'n64dude'
p640
(dp641
g18
S'parting #Equilibrium'
p642
sg20
F1315593181.9300001
sg21
I1
sg22
I4
ssS'yppup'
p643
(dp644
g384
S'quitting with: Quit: http://www.mibbit.com ajax IRC Client'
p645
sg386
F1313558567.125
sg387
I61
sg388
I806
ssS'ringwraith|disgaea4'
p646
(dp647
g130
S'changing nick to Ringwraith'
p648
sg132
F1316395992.589
sg133
I0
sg134
I0
ssS'emsenn0'
p649
(dp650
g146
S'parting #boats'
p651
sg148
F1298863073.7160001
sg149
I68
sg150
I1881
ssS'jack'
p652
(dp653
g561
S'quitting with: Quit: disco'
p654
sg563
F1307768285.905
sg564
I15
sg565
I483
ssS'wolfie'
p655
(dp656
g181
S'quitting with: Read error: Connection reset by peer'
p657
sg183
F1316334373.4630001
sg184
I0
sg185
I0
ssS'guest34438'
p658
(dp659
g123
S'changing nick to psychon'
p660
sg125
F1315385204.016
sg126
I0
sg127
I0
ssS'rudyroughnight'
p661
(dp662
g18
S'changing nick to Sonatawraith'
p663
sg20
F1315751942.2260001
sg21
I0
sg22
I0
ssS'wolli'
p664
(dp665
g123
S'quitting with: Connection reset by peer'
p666
sg125
F1316082381.5280001
sg126
I0
sg127
I0
ssS'blanketspace'
p667
(dp668
g456
S'quitting with: Connection reset by peer'
p669
sg458
F1316168496.4449999
sg459
I1187
sg460
I35083
ssS'rynryn'
p670
(dp671
g100
S'quitting with: Client Quit'
p672
sg102
F1315514237.7320001
sg103
I438
sg104
I6609
ssS'andkore'
p673
(dp674
g456
S'quitting with: Quit: Leaving'
p675
sg458
F1312248923.822
sg459
I13
sg460
I377
ssS'_lemon_'
p676
(dp677
g42
S'quitting with: Quit: Konversation terminated!'
p678
sg44
F1307918021.026
sg45
I27
sg46
I996
ssS'ramen'
p679
(dp680
S'action'
p681
S'quitting with: Client closed the connection'
p682
sS'secs'
p683
F1313869914.809
sS'lines'
p684
I17
sS'chars'
p685
I1275
ssS'maid'
p686
(dp687
g11
S'speaking in #necrolounge'
p688
sg13
F1316394985.937
sg14
I568
sg15
I24763
ssS'tyler'
p689
(dp690
g42
S'quitting with: Quit: Tyler'
p691
sg44
F1302419478.569
sg45
I503
sg46
I11044
ssS'z|food'
p692
(dp693
g123
S'changing nick to ZRVera'
p694
sg125
F1315404015.4560001
sg126
I0
sg127
I0
ssS'titsos'
p695
(dp696
g42
S'quitting with: Client closed the connection'
p697
sg44
F1316379456.8699999
sg45
I565
sg46
I14779
ssS'abkarch'
p698
(dp699
g219
S'quitting with: Client exited'
p700
sg221
F1309887890.411
sg222
I30
sg223
I1644
ssS'kiwizoom'
p701
(dp702
g239
S'quitting with: Read error: Connection reset by peer'
p703
sg241
F1295073304.4660001
sg242
I33
sg243
I945
ssS'lukish'
p704
(dp705
g239
S'changing nick to Guest86417'
p706
sg241
F1316121214.464
sg242
I867
sg243
I31898
ssS'adsleep'
p707
(dp708
g123
S'quitting with: Quit: Leaving'
p709
sg125
F1315386934.9059999
sg126
I0
sg127
I0
ssS'tf|1'
p710
(dp711
g18
S'changing nick to TF|'
p712
sg20
F1316378549.4549999
sg21
I1
sg22
I22
ssS'ringwraith'
p713
(dp714
g123
S'quitting with: Quit: Villains are always up to villainous things!'
p715
sg125
F1316396838.8900001
sg126
I0
sg127
I0
ssS'fallout10mm'
p716
(dp717
g11
S'quitting with: Quit: Explosive decomprestion? Whats that....Aaaahhh!'
p718
sg13
F1316196321.4070001
sg14
I4487
sg15
I159752
ssS'tf|desktop|afk'
p719
(dp720
g384
S'changing nick to TF|Sleep'
p721
sg386
F1313661202.0220001
sg387
I36
sg388
I1117
ssS'lissa___'
p722
(dp723
g18
S'quitting with: Ping timeout'
p724
sg20
F1315533822.2539999
sg21
I0
sg22
I0
ssS'chr1s'
p725
(dp726
g123
S'joining #uespwiki'
p727
sg125
F1316396894.6010001
sg126
I0
sg127
I0
ssS'ejkorvett'
p728
(dp729
g123
S'quitting'
p730
sg125
F1316196447.674
sg126
I6
sg127
I150
ssS'lindaa'
p731
(dp732
g42
S'changing nick from Guest52763'
p733
sg44
F1316399385.1760001
sg45
I416
sg46
I4331
ssS'ambeco'
p734
(dp735
S'action'
p736
S'quitting with: Quit: http://www.mibbit.com ajax IRC Client'
p737
sS'secs'
p738
F1315003830.089
sS'lines'
p739
I14
sS'chars'
p740
I666
ssS'coldacid|away'
p741
(dp742
g123
S'changing nick to coldacid'
p743
sg125
F1316353654.1210001
sg126
I0
sg127
I0
ssS'alex'
p744
(dp745
g456
S'changing nick to Lupin'
p746
sg458
F1303751188.7590001
sg459
I99
sg460
I1757
ssS'l'
(dp747
g62
S'changing nick to Lupin'
p748
sg64
F1296064514.793
sg65
I18
sg66
I276
ssS'cartis-'
p749
(dp750
g181
S'quitting with: Ping timeout: 121 seconds'
p751
sg183
F1316318778.056
sg184
I0
sg185
I0
ssS'fallout|nv'
p752
(dp753
g86
S'changing nick to Fallout|Shower'
p754
sg88
F1301786350.122
sg89
I33
sg90
I946
ssS'ploosk'
p755
(dp756
g530
S'speaking in #boats'
p757
sg532
F1312851549.5810001
sg533
I612
sg534
I17571
ssS'guest49827'
p758
(dp759
g18
S'quitting with: Connection reset by peer'
p760
sg20
F1315622875.9289999
sg21
I0
sg22
I0
ssS'moneybags01'
p761
(dp762
g146
S'quitting with: Ping timeout: 121 seconds'
p763
sg148
F1298789310.027
sg149
I44
sg150
I803
ssS'|'
(dp764
g100
S'joining #internet'
p765
sg102
F1306385177.2320001
sg103
I245
sg104
I5593
ssS'alias\\'
p766
(dp767
g62
S'speaking in #boats'
p768
sg64
F1295746388.197
sg65
I21
sg66
I653
ssS'nachtruhe'
p769
(dp770
g35
S'quitting with: Client Quit'
p771
sg37
F1305250416.1559999
sg38
I15
sg39
I264
ssS'w13'
p772
(dp773
g681
S'quitting with: Client closed the connection'
p774
sg683
F1314114606.73
sg684
I25
sg685
I1163
ssS'ryn238_'
p775
(dp776
g219
S'changing nick to RynRyn'
p777
sg221
F1313108269.0739999
sg222
I14
sg223
I176
ssS'goose'
p778
(dp779
g449
S"quitting with: Quit: Staying alive can kill you, it's taken years off of my life."
p780
sg451
F1316308963.273
sg452
I0
sg453
I0
ssS'guest81635'
p781
(dp782
g130
S'changing nick to titsos'
p783
sg132
F1316094680.688
sg133
I0
sg134
I0
ssS'shadowfax'
p784
(dp785
g42
S'joining #boats'
p786
sg44
F1299026168.5810001
sg45
I125
sg46
I4537
ssS'partricke'
p787
(dp788
S'action'
p789
S'quitting with: Ping timeout'
p790
sS'secs'
p791
F1314438699.707
sS'lines'
p792
I107
sS'chars'
p793
I2841
ssS'nullpointerbot'
p794
(dp795
g288
S'quitting with: Ping timeout'
p796
sg290
F1305079957.783
sg291
I51
sg292
I445
ssS'shaddow'
p797
(dp798
g288
S'quitting with: Quit: http://www.mibbit.com ajax IRC Client'
p799
sg290
F1304851971.6730001
sg291
I164
sg292
I1940
ssS'asiqirl'
p800
(dp801
S'action'
p802
S'quitting with: Connection reset by peer'
p803
sS'secs'
p804
F1303317079.5250001
sS'lines'
p805
I12
sS'chars'
p806
I348
ssS'kai___'
p807
(dp808
S'action'
p809
S'changing nick to ChairWool'
p810
sS'secs'
p811
F1303582049.2809999
sS'lines'
p812
I11
sS'chars'
p813
I328
ssS'guest45707'
p814
(dp815
g18
S'changing nick to titsos'
p816
sg20
F1315656655.3800001
sg21
I0
sg22
I0
ssS'eugenekaway'
p817
(dp818
g267
S'changing nick to EugeneKay'
p819
sg269
F1316358489.974
sg270
I28
sg271
I745
ssS'god'
p820
(dp821
g802
S'quitting with: Quit: leaving'
p822
sg804
F1304230343.388
sg805
I89
sg806
I1989
ssS'sevre|lunch'
p823
(dp824
g123
S'changing nick to Sevre'
p825
sg125
F1315748359.984
sg126
I0
sg127
I0
ssS'america_fuck_yeah'
p826
(dp827
g93
S'changing nick to Herp|pasko|Derp'
p828
sg95
F1304382890.404
sg96
I47
sg97
I1193
ssS'jercos_'
p829
(dp830
g332
S'quitting with: Quit: Whee'
p831
sg334
F1312995154.0039999
sg335
I40
sg336
I1121
ssS'adward|away'
p832
(dp833
g11
S'changing nick to Adward'
p834
sg13
F1314474775.0350001
sg14
I130
sg15
I1779
ssS'kinglaptop'
p835
(dp836
g153
S'quitting with: Quit: Leaving'
p837
sg155
F1299788674.4530001
sg156
I18
sg157
I481
ssS'cuddlefish'
p838
(dp839
g52
S'quitting with: Quit: Leaving'
p840
sg54
F1302321512.1300001
sg55
I23
sg56
I572
ssS'alonzotg'
p841
(dp842
S'action'
p843
S'parting #uespwiki'
p844
sS'secs'
p845
F1312256344.6300001
sS'lines'
p846
I231
sS'chars'
p847
I13545
ssS'teksura'
p848
(dp849
g42
S'speaking in #necrolounge'
p850
sg44
F1315862127.4519999
sg45
I482
sg46
I25436
ssS'not_kindari'
p851
(dp852
g736
S'changing nick to Kindari'
p853
sg738
F1307383336.763
sg739
I14
sg740
I836
ssS'dextralus'
p854
(dp855
g123
S'joining #bots'
p856
sg125
F1316384542.0810001
sg126
I0
sg127
I0
ssS'blanketsincognito'
p857
(dp858
g35
S'changing nick to Blanketspace'
p859
sg37
F1305253318.0650001
sg38
I52
sg39
I2602
ssS'senor'
p860
(dp861
g420
S'quitting with: Quit: Leaving'
p862
sg422
F1297655032.721
sg423
I15
sg424
I482
ssS'lissa_____'
p863
(dp864
g18
S'quitting with: Ping timeout'
p865
sg20
F1315538929.053
sg21
I0
sg22
I0
ssS'warpzone'
p866
(dp867
g18
S'quitting with: Quit: WarpZone'
p868
sg20
F1316342415.053
sg21
I0
sg22
I0
ssS'randall'
p869
(dp870
g18
S'joining #bots'
p871
sg20
F1315986554.948
sg21
I0
sg22
I0
ssS'___'
p872
(dp873
g206
S'changing nick to Foo'
p874
sg208
F1312957733.8859999
sg209
I12
sg210
I346
ssS'ash'
p875
(dp876
g130
S'quitting with: Client Quit'
p877
sg132
F1315988800.0699999
sg133
I0
sg134
I0
ssS'efreak'
p878
(dp879
g42
S'joining #Equilibrium'
p880
sg44
F1315920423.3959999
sg45
I17
sg46
I426
ssS'adaway'
p881
(dp882
g123
S'quitting with: Ping timeout'
p883
sg125
F1316212388.029
sg126
I2
sg127
I14
ssS'samsmart_'
p884
(dp885
g18
S'changing nick to SamSmart'
p886
sg20
F1315523410.5309999
sg21
I0
sg22
I0
ssS'protoboy_'
p887
(dp888
g18
S'changing nick to Protoboy'
p889
sg20
F1315938284.5409999
sg21
I0
sg22
I0
ssS'you|work'
p890
(dp891
g391
S'quitting with: Ping timeout'
p892
sg393
F1312220519.8380001
sg394
I106
sg395
I5159
ssS'revenant'
p893
(dp894
g809
S'joining #necrolounge'
p895
sg811
F1316385272.681
sg812
I234
sg813
I6899
ssS'dogfort'
p896
(dp897
g62
S'changing nick to pasko'
p898
sg64
F1304994592.49
sg65
I649
sg66
I21859
ssS'guest97401'
p899
(dp900
g18
S'quitting with: Client Quit'
p901
sg20
F1315797603.641
sg21
I0
sg22
I0
ssS'lissa_________'
p902
(dp903
g18
S'changing nick to Lissa'
p904
sg20
F1315524328.914
sg21
I0
sg22
I0
ssS'crynomore'
p905
(dp906
g181
S'quitting with: Read error: Connection reset by peer'
p907
sg183
F1316366225.5220001
sg184
I1
sg185
I58
ssS'tf|desktop'
p908
(dp909
g123
S'changing nick to TF|Sleep'
p910
sg125
F1315391544.7520001
sg126
I0
sg127
I0
ssS'chairwool'
p911
(dp912
g439
S'quitting with: Quit: L O L'
p913
sg441
F1311557657.05
sg442
I1296
sg443
I29310
ssS'roddie'
p914
(dp915
g42
S'parting #uespwiki'
p916
sg44
F1302362883.112
sg45
I49
sg46
I1823
ssS'xul'
p917
(dp918
S'action'
p919
S'changing nick from xul_gone'
p920
sS'secs'
p921
F1315022975.214
sS'lines'
p922
I24
sS'chars'
p923
I397
ssS'fallout9mm'
p924
(dp925
g123
S'quitting with: Quit: Explosive decompresstion? Whats tha....AHHHHH!'
p926
sg125
F1315386005.355
sg126
I5
sg127
I169
ssS'proweler1'
p927
(dp928
g123
S'quitting with: Client closed the connection'
p929
sg125
F1316345405.823
sg126
I0
sg127
I0
ssS'willy_bum'
p930
(dp931
g456
S'quitting with: Quit: http://www.mibbit.com ajax IRC Client'
p932
sg458
F1303826284.451
sg459
I29
sg460
I710
ssS'jesus'
p933
(dp934
g456
S'quitting with: Quit: leaving'
p935
sg458
F1304227650.4219999
sg459
I53
sg460
I1100
ssS'rpeh_'
p936
(dp937
S'action'
p938
S'changing nick to rpeh'
p939
sS'secs'
p940
F1302479681.8900001
sS'lines'
p941
I13
sS'chars'
p942
I318
ssS'profilebot'
p943
(dp944
g130
S'joining #bots'
p945
sg132
F1316098345.391
sg133
I0
sg134
I0
ssS'pasko|eve'
p946
(dp947
g339
S'getting kicked from #necrolounge by EugeneKay for: failure'
p948
sg341
F1304222230.303
sg342
I155
sg343
I4056
ssS'foksieloy'
p949
(dp950
g809
S'quitting with: Ping timeout: 121 seconds'
p951
sg811
F1316372997.1329999
sg812
I55
sg813
I2100
ssS'watuhboy'
p952
(dp953
g229
S'quitting with: Quit: The early bird may get the worm, but the second mouse gets the cheese'
p954
sg231
F1312633976.678
sg232
I27
sg233
I553
ssS'robinhood70'
p955
(dp956
g374
S'parting #uespwiki'
p957
sg376
F1302320316.5969999
sg377
I77
sg378
I5471
ssS'wolfie293'
p958
(dp959
g123
S'joining #devart'
p960
sg125
F1316400263.8789999
sg126
I0
sg127
I0
ssS'ejnotonpo'
p961
(dp962
g123
S'changing nick to EJKorvett'
p963
sg125
F1315345346.6429999
sg126
I0
sg127
I0
ssS'eugenebeer[4]'
p964
(dp965
g18
S'changing nick to EugeneBeer[5]'
p966
sg20
F1315769345.178
sg21
I0
sg22
I0
ssS'pippijn'
p967
(dp968
g153
S'speaking in #internet'
p969
sg155
F1316318538.7
sg156
I175
sg157
I4145
ssS'tf|out'
p970
(dp971
g11
S'quitting with: Ping timeout: 121 seconds'
p972
sg13
F1316330524.533
sg14
I36
sg15
I1521
ssS'the_holy_ghost'
p973
(dp974
g456
S'changing nick to hannerz'
p975
sg458
F1304228586.5910001
sg459
I73
sg460
I2166
ssS'hawke'
p976
(dp977
g100
S'parting #bots'
p978
sg102
F1314933148.8800001
sg103
I500
sg104
I20537
ssS'where|afk'
p979
(dp980
g130
S'quitting with: Ping timeout: 121 seconds'
p981
sg132
F1316015133.155
sg133
I0
sg134
I0
ssS'kuro'
p982
(dp983
g11
S'parting #Equilibrium'
p984
sg13
F1311462985.408
sg14
I40
sg15
I958
ssS'shawn'
p985
(dp986
g153
S'speaking in #internet'
p987
sg155
F1316390839.329
sg156
I752
sg157
I18459
ssS'tonux'
p988
(dp989
g123
S'quitting with: Quit: Leaving'
p990
sg125
F1316394936.7909999
sg126
I0
sg127
I0
ssS'tf|'
p991
(dp992
g42
S'speaking in #TRSpam'
p993
sg44
F1316395488.181
sg45
I1105
sg46
I35143
ssS'des|xfiles'
p994
(dp995
g219
S'changing nick to Desdemona'
p996
sg221
F1313556980.6960001
sg222
I28
sg223
I493
ssS'adwork'
p997
(dp998
g130
S'changing nick to Adward'
p999
sg132
F1316035712.7349999
sg133
I0
sg134
I0
ssS'ryn238'
p1000
(dp1001
g229
S'quitting with: Quit: Beware of programmers who carry screwdrivers.'
p1002
sg231
F1313847646.4619999
sg232
I306
sg233
I4995
ssS'cat|away'
p1003
(dp1004
g18
S'quitting with: Quit: Leaving.'
p1005
sg20
F1316234391.267
sg21
I0
sg22
I0
ssS'asbrandt'
p1006
(dp1007
g384
S'speaking in #necrolounge'
p1008
sg386
F1316396288.0250001
sg387
I38
sg388
I2904
ssS'artemios'
p1009
(dp1010
g42
S'quitting with: Read error: Connection reset by peer'
p1011
sg44
F1316381915.1300001
sg45
I876
sg46
I19757
ssS'slack'
p1012
(dp1013
g42
S'quitting with: Ping timeout'
p1014
sg44
F1311930592.3870001
sg45
I101
sg46
I3487
ssS'emsenn'
p1015
(dp1016
g25
S'joining #boats'
p1017
sg27
F1315495609.0190001
sg28
I3423
sg29
I112351
ssS'guest14042'
p1018
(dp1019
g18
S'quitting with: Ping timeout: 260 seconds'
p1020
sg20
F1315797591.5639999
sg21
I0
sg22
I0
ssS'guest74716'
p1021
(dp1022
g18
S'quitting with: Connection reset by peer'
p1023
sg20
F1315581882.898
sg21
I0
sg22
I0
ssS'nameless1'
p1024
(dp1025
g332
S'quitting with: Quit: leaving'
p1026
sg334
F1314486495.6040001
sg335
I13
sg336
I326
ssS'blanketspace_'
p1027
(dp1028
g456
S'changing nick to Blanketspace'
p1029
sg458
F1315102504.322
sg459
I75
sg460
I1942
ssS'r'
(dp1030
g62
S'changing nick to manicflamingo'
p1031
sg64
F1296008007.839
sg65
I14
sg66
I349
ssS'johhan'
p1032
(dp1033
g11
S'quitting with: Quit: ChatZilla 0.9.87 [Firefox 5.0/20110615151330]'
p1034
sg13
F1312661032.9189999
sg14
I2075
sg15
I55101
ssS'kinz'
p1035
(dp1036
g789
S'changing nick to SynDat'
p1037
sg791
F1314489007.0439999
sg792
I24
sg793
I776
ssS'chzo'
p1038
(dp1039
g449
S'parting #boats'
p1040
sg451
F1315506441.9089999
sg452
I2
sg453
I81
ssS'tonux_'
p1041
(dp1042
g18
S'quitting with: Quit: Leaving'
p1043
sg20
F1316299909.2539999
sg21
I0
sg22
I0
ssS'zylche'
p1044
(dp1045
g18
S'speaking in #boats'
p1046
sg20
F1316188591.174
sg21
I3
sg22
I79
ssS'auroranova'
p1047
(dp1048
g456
S'quitting with: Connection reset by peer'
p1049
sg458
F1303768651.3469999
sg459
I326
sg460
I6422
ssS'ejplaying'
p1050
(dp1051
g123
S'changing nick to EJnotOnPo'
p1052
sg125
F1315344617.766
sg126
I0
sg127
I0
ssS'lissa____'
p1053
(dp1054
g18
S'quitting with: Ping timeout'
p1055
sg20
F1315537545.0139999
sg21
I0
sg22
I0
ssS'manicflamingo'
p1056
(dp1057
g62
S'changing nick to Ryn'
p1058
sg64
F1296083084.911
sg65
I98
sg66
I1465
ssS'loki'
p1059
(dp1060
g42
S'joining #uespwiki'
p1061
sg44
F1316381211.0220001
sg45
I78
sg46
I2719
ssS'captain_tf|planet'
p1062
(dp1063
g35
S'quitting with: Ping timeout: 121 seconds'
p1064
sg37
F1305184489.4000001
sg38
I23
sg39
I542
ssS'jercos'
p1065
(dp1066
g42
S'speaking in #boats'
p1067
sg44
F1316395888.809
sg45
I6349
sg46
I235980
ssS'holy_ghost'
p1068
(dp1069
g456
S'changing nick to The_Holy_Ghost'
p1070
sg458
F1303686756.3959999
sg459
I22
sg460
I480
ssS'tf|lab'
p1071
(dp1072
g11
S'quitting with: Quit: http://www.mibbit.com ajax IRC Client'
p1073
sg13
F1298960035.4749999
sg14
I51
sg15
I2025
ssS'self'
p1074
(dp1075
g42
S'quitting with: Quit: Self'
p1076
sg44
F1313038211.8699999
sg45
I236
sg46
I8964
ssS'raphidae'
p1077
(dp1078
g62
S'speaking in #devart'
p1079
sg64
F1301761161.783
sg65
I23
sg66
I637
ssS'zamiel'
p1080
(dp1081
g62
S'quitting with: Disconnected by services'
p1082
sg64
F1312940058.3180001
sg65
I56
sg66
I3589
ssS'sannse_'
p1083
(dp1084
g93
S'changing nick to Guest97401'
p1085
sg95
F1315797566.7460001
sg96
I50
sg97
I1841
ssS'guest62466'
p1086
(dp1087
g181
S'changing nick to titsos'
p1088
sg183
F1316263409.0650001
sg184
I0
sg185
I0
ssS'[o][o]'
p1089
(dp1090
g229
S'changing nick to EugeneKay'
p1091
sg231
F1304472668.9170001
sg232
I47
sg233
I1812
ssS'kyte'
p1092
(dp1093
g42
S'quitting with: Ping timeout: 258 seconds'
p1094
sg44
F1316397272.3929999
sg45
I4185
sg46
I176407
ssS'reverend789'
p1095
(dp1096
g62
S'quitting with: Client Quit'
p1097
sg64
F1316351812.7609999
sg65
I82
sg66
I2265
ssS'satomi'
p1098
(dp1099
g18
S'changing nick to Sarikitty'
p1100
sg20
F1316057111.493
sg21
I0
sg22
I0
ssS'hannerz'
p1101
(dp1102
g420
S'speaking in #boats'
p1103
sg422
F1316391091.6919999
sg423
I11537
sg424
I389669
ssS'zucchini'
p1104
(dp1105
g681
S'quitting with: Quit: http://www.mibbit.com ajax IRC Client'
p1106
sg683
F1313779483.059
sg684
I16
sg685
I396
ssS'sannse-away'
p1107
(dp1108
g843
S'quitting with: Ping timeout: 240 seconds'
p1109
sg845
F1299472403.1559999
sg846
I27
sg847
I1237
ssS'kaj'
p1110
(dp1111
g288
S'quitting with: Connection reset by peer'
p1112
sg290
F1305090410.329
sg291
I11
sg292
I149
ssS'kai'
p1113
(dp1114
g632
S'joining #boats'
p1115
sg634
F1315833665.1830001
sg635
I586
sg636
I15292
ssS'ivbela'
p1116
(dp1117
g18
S'joining #uespwiki'
p1118
sg20
F1315592960.1500001
sg21
I0
sg22
I0
ssS'jsp'
p1119
(dp1120
g130
S'quitting with: Quit: Leaving'
p1121
sg132
F1316375929.938
sg133
I2
sg134
I83
ssS'kat'
p1122
(dp1123
g315
S'quitting with: Ping timeout'
p1124
sg317
F1312306050.6989999
sg318
I277
sg319
I8725
ssS'gregoriev'
p1125
(dp1126
g42
S'quitting with: Ping timeout'
p1127
sg44
F1314504724.7479999
sg45
I19
sg46
I440
ssS'mistform'
p1128
(dp1129
g530
S'quitting with: Quit: '
p1130
sg532
F1311578677.7420001
sg533
I54
sg534
I1660
ssS'john_cusack'
p1131
(dp1132
g622
S'speaking in #necrolounge'
p1133
sg624
F1299484436.7260001
sg625
I153
sg626
I4243
ssS'tsutomu'
p1134
(dp1135
g11
S'quitting with: Client exited'
p1136
sg13
F1309885376.6570001
sg14
I134
sg15
I4301
ssS'freelancer'
p1137
(dp1138
g239
S'speaking in #boats'
p1139
sg241
F1316157209.0239999
sg242
I3113
sg243
I82728
ssS'neatchee|away'
p1140
(dp1141
g449
S'changing nick to neatchee|Swype'
p1142
sg451
F1316364708.0880001
sg452
I0
sg453
I0
ssS'ejonpogo'
p1143
(dp1144
g123
S'changing nick to EJKorvett'
p1145
sg125
F1315365804.1029999
sg126
I0
sg127
I0
ssS'artemis'
p1146
(dp1147
g239
S'joining #boats'
p1148
sg241
F1315833665.184
sg242
I620
sg243
I29918
ssS'ryn_'
p1149
(dp1150
g18
S'changing nick to RynRyn'
p1151
sg20
F1315513992.9630001
sg21
I1
sg22
I6
ssS'guest54088'
p1152
(dp1153
g18
S'changing nick to Dritz'
p1154
sg20
F1315549200.924
sg21
I0
sg22
I0
ssS'guest16223'
p1155
(dp1156
g18
S'changing nick to titsos'
p1157
sg20
F1315748105.467
sg21
I0
sg22
I0
ssS'asus'
p1158
(dp1159
g130
S'quitting with: Quit: '
p1160
sg132
F1315904604.671
sg133
I1
sg134
I4
ssS'sigma'
p1161
(dp1162
g100
S'joining #bots'
p1163
sg102
F1312708118.3469999
sg103
I38
sg104
I647
ssS'jimino'
p1164
(dp1165
g18
S'joining #necrolounge'
p1166
sg20
F1315684095.2460001
sg21
I0
sg22
I0
ssS'doctor_rockso'
p1167
(dp1168
S'action'
p1169
S'changing nick to pasko'
p1170
sS'secs'
p1171
F1304727932.688
sS'lines'
p1172
I14
sS'chars'
p1173
I574
ssS'desdenoma'
p1174
(dp1175
g93
S'changing nick to desdemona'
p1176
sg95
F1313967265.6849999
sg96
I11
sg97
I160
ssS'eugenephone'
p1177
(dp1178
g113
S'changing nick to EugeneKaway'
p1179
sg115
F1314980951.082
sg116
I17
sg117
I374
ssS'flechmen_disconnected'
p1180
(dp1181
g123
S'changing nick to Flechmen'
p1182
sg125
F1316383855.74
sg126
I0
sg127
I0
ssS'jonanin'
p1183
(dp1184
g42
S'quitting with: Ping timeout'
p1185
sg44
F1311467789.9330001
sg45
I77
sg46
I1379
ssS'troy'
p1186
(dp1187
S'action'
p1188
S'quitting with: Quit: Leaving'
p1189
sS'secs'
p1190
F1311724443.075
sS'lines'
p1191
I117
sS'chars'
p1192
I5714
ssS'perfekt'
p1193
(dp1194
g420
S'quitting with: Quit: Pull the pin and count to what?'
p1195
sg422
F1297295708.4419999
sg423
I58
sg424
I1671
ssS'yazdmich'
p1196
(dp1197
g181
S'quitting with: Ping timeout'
p1198
sg183
F1316297029.1659999
sg184
I6
sg185
I59
ssS'ultros'
p1199
(dp1200
g130
S'changing nick to Sync'
p1201
sg132
F1316155838.2160001
sg133
I0
sg134
I0
ssS'dragonite'
p1202
(dp1203
g219
S'quitting with: Client exited'
p1204
sg221
F1309914657.562
sg222
I19
sg223
I776
ssS'arvisrend|thesis'
p1205
(dp1206
g86
S'quitting with: Ping timeout: 121 seconds'
p1207
sg88
F1304891912.763
sg89
I31
sg90
I1029
ssS'xul_gone'
p1208
(dp1209
g130
S'joining #boats'
p1210
sg132
F1315833664.9200001
sg133
I0
sg134
I0
ssS'ijiero'
p1211
(dp1212
g520
S'parting #uespwiki'
p1213
sg522
F1307303237.993
sg523
I61
sg524
I2886
ssS'slackfa'
p1214
(dp1215
g420
S'quitting with: Ping timeout: 260 seconds'
p1216
sg422
F1311930644.753
sg423
I192
sg424
I5294
ssS'lissa______'
p1217
(dp1218
g18
S'changing nick to Lissa'
p1219
sg20
F1315540088.888
sg21
I0
sg22
I0
ssS'sevre'
p1220
(dp1221
g123
S'quitting with: Client closed the connection'
p1222
sg125
F1316123927.1730001
sg126
I0
sg127
I0
ssS'ensemm'
p1223
(dp1224
g113
S'changing nick to emsenn'
p1225
sg115
F1312473424.1919999
sg116
I162
sg117
I5389
ssS'chalic'
p1226
(dp1227
g384
S'quitting with: Quit: - nbs-irc 2.39 - www\x0f.nbs-irc\x0f.net -'
p1228
sg386
F1313878681.3050001
sg387
I40
sg388
I1159
ssS'pasko'
p1229
(dp1230
g11
S'speaking in #necrolounge'
p1231
sg13
F1316210788.6700001
sg14
I3233
sg15
I100791
ssS'lissa__'
p1232
(dp1233
g18
S'changing nick to Lissa'
p1234
sg20
F1315543537.3239999
sg21
I0
sg22
I0
ssS'db9'
p1235
(dp1236
S'action'
p1237
S'speaking in #boats'
p1238
sS'secs'
p1239
F1307854661.493
sS'lines'
p1240
I207
sS'chars'
p1241
I6601
ssS'ravenent'
p1242
(dp1243
g123
S'changing nick to Revenant'
p1244
sg125
F1315988682.802
sg126
I0
sg127
I0
ssS'namelezz'
p1245
(dp1246
g632
S'getting kicked from #boats by nameless for: THERE CAN ONLY BE ONE'
p1247
sg634
F1311057335.0710001
sg635
I20
sg636
I503
ssS'fallout'
p1248
(dp1249
g93
S'changing nick to Fallout|Deadisland'
p1250
sg95
F1315540803.845
sg96
I174
sg97
I6377
ssS'resixian'
p1251
(dp1252
g18
S'joining #uespwiki'
p1253
sg20
F1315827620.862
sg21
I0
sg22
I0
ssS'dlarsh|work'
p1254
(dp1255
g561
S'changing nick to Dlarsh'
p1256
sg563
F1307648349.0810001
sg564
I28
sg565
I1492
ssS'dw'
p1257
(dp1258
S'action'
p1259
S'quitting with: Quit: '
p1260
sS'secs'
p1261
F1307750973.507
sS'lines'
p1262
I70
sS'chars'
p1263
I1316
ssS'bofh'
p1264
(dp1265
g42
S'joining #boats'
p1266
sg44
F1315833665.1819999
sg45
I1208
sg46
I60636
ssS'general_crespin'
p1267
(dp1268
g130
S'changing nick from GeneralCrespin'
p1269
sg132
F1316197295.0550001
sg133
I0
sg134
I0
ssS'marquis'
p1270
(dp1271
g123
S'changing nick to GrandMarquis'
p1272
sg125
F1315356413.151
sg126
I0
sg127
I0
ssS'sadface'
p1273
(dp1274
g62
S'changing nick to dogfort'
p1275
sg64
F1295828092.698
sg65
I16
sg66
I223
ssS'brik'
p1276
(dp1277
g93
S'joining #internet'
p1278
sg95
F1316363794.5
sg96
I16
sg97
I509
ssS'skah|terraria'
p1279
(dp1280
S'action'
p1281
S'changing nick to Skah'
p1282
sS'secs'
p1283
F1305774171.2820001
sS'lines'
p1284
I16
sS'chars'
p1285
I458
ssS'sarikitty'
p1286
(dp1287
g42
S'quitting with: Client closed the connection'
p1288
sg44
F1316335051.421
sg45
I50
sg46
I2287
ssS'scotticus'
p1289
(dp1290
g456
S'changing nick to ADK'
p1291
sg458
F1303723571.454
sg459
I26
sg460
I363
ssS'entomo'
p1292
(dp1293
g325
S'joining #necrolounge'
p1294
sg327
F1316347867.1919999
sg328
I109
sg329
I5329
ssS'sigma_'
p1295
(dp1296
g332
S'quitting with: Quit: :wq'
p1297
sg334
F1314226727.9000001
sg335
I66
sg336
I1380
ssS'lackofafokcal'
p1298
(dp1299
g52
S'parting #bots'
p1300
sg54
F1302299808.9630001
sg55
I73
sg56
I1018
ssS'rpeh'
p1301
(dp1302
g42
S'quitting with: Quit: Leaving'
p1303
sg44
F1315220036.7390001
sg45
I667
sg46
I33777
ssS'midori'
p1304
(dp1305
g123
S'parting #devart'
p1306
sg125
F1315340492.3610001
sg126
I0
sg127
I0
ssS'sanae'
p1307
(dp1308
g281
S'quitting with: Quit: ~ Trillian Astra - www.trillian.im ~'
p1309
sg283
F1296443321.5510001
sg284
I16
sg285
I1121
ssS'ap|away'
p1310
(dp1311
g809
S'joining #devart'
p1312
sg811
F1303837851.9860001
sg812
I37
sg813
I522
ssS'menelaus'
p1313
(dp1314
g420
S'quitting with: Quit: www.steve3d.co.uk - Images from a bored mind.'
p1315
sg422
F1299027538.9690001
sg423
I20
sg424
I380
ssS'spoonless'
p1316
(dp1317
g18
S'parting #bots'
p1318
sg20
F1315743663.1919999
sg21
I1
sg22
I25
ssS'vr7'
p1319
(dp1320
g123
S'joining #devart'
p1321
sg125
F1316366044.4070001
sg126
I0
sg127
I0
ssS'hawkcohen'
p1322
(dp1323
g123
S'parting #bots for: Leaving'
p1324
sg125
F1315363409.6440001
sg126
I1
sg127
I14
ssS'tf|class'
p1325
(dp1326
g130
S'changing nick to TF|'
p1327
sg132
F1316296790.934
sg133
I0
sg134
I0
ssS'lu\\'
p1328
(dp1329
g420
S'quitting with: Quit: Leaving'
p1330
sg422
F1301630566.5439999
sg423
I31
sg424
I1443
ssS'uespuser'
p1331
(dp1332
g42
S'quitting with: Client exited'
p1333
sg44
F1316240011.3699999
sg45
I922
sg46
I31068
ssS'guest38107'
p1334
(dp1335
g18
S'changing nick to wolli'
p1336
sg20
F1315554295.687
sg21
I0
sg22
I0
ssS'exxodium-'
p1337
(dp1338
g809
S'changing nick to Exxodium'
p1339
sg811
F1315720548.6989999
sg812
I142
sg813
I5684
ssS'addward'
p1340
(dp1341
g239
S'quitting with: Connection reset by peer'
p1342
sg241
F1315724348.9820001
sg242
I68
sg243
I966
ssS'tohsaka'
p1343
(dp1344
g18
S'changing nick from Tohsaka_'
p1345
sg20
F1315611983.5339999
sg21
I0
sg22
I0
ssS'zack'
p1346
(dp1347
g325
S'speaking in #boats'
p1348
sg327
F1313036632.28
sg328
I82
sg329
I1884
ssS'guest62933'
p1349
(dp1350
g130
S"quitting with: Quit: \x0f\x0312\xe2\x80\x94\x0314I\x0312-\x0315n\x0312-\x0315v\x0312-\x0300i\x0312-\x0300s\x0312-\x0315i\x0312-\x0315o\x0312-\x0314n\x0312\xe2\x80\x94\x0f 3.2 (July '10)"
p1351
sg132
F1316157518.5409999
sg133
I0
sg134
I0
ssS'generalcrespin'
p1352
(dp1353
g181
S'changing nick to General_Crespin'
p1354
sg183
F1316197295.0550001
sg184
I0
sg185
I0
ssS'coonhoot1'
p1355
(dp1356
S'action'
p1357
S'quitting with: Ping timeout: 121 seconds'
p1358
sS'secs'
p1359
F1307600073.0309999
sS'lines'
p1360
I26
sS'chars'
p1361
I575
ssS'flechmen_away'
p1362
(dp1363
g123
S'changing nick to Flechmen'
p1364
sg125
F1316395021.7939999
sg126
I0
sg127
I0
ssS'mrpink'
p1365
(dp1366
g69
S'quitting with: Quit: http://www.mibbit.com ajax IRC Client'
p1367
sg71
F1312905325.9489999
sg72
I22
sg73
I1730
ssS'polymath'
p1368
(dp1369
g622
S'changing nick to Desdemona'
p1370
sg624
F1300995843.24
sg625
I37
sg626
I1066
ssS'guest48665'
p1371
(dp1372
g18
S'quitting with: Client closed the connection'
p1373
sg20
F1315624777.937
sg21
I0
sg22
I0
ssS'fallout|deadisland'
p1374
(dp1375
g18
S'changing nick to Fallout10mm'
p1376
sg20
F1315631468.7609999
sg21
I25
sg22
I991
ssS'anti|laptop'
p1377
(dp1378
g456
S'quitting with: Quit: Leaving'
p1379
sg458
F1304388011.27
sg459
I42
sg460
I1149
ssS'johhaway'
p1380
(dp1381
g736
S'changing nick to Johhan'
p1382
sg738
F1309658890.723
sg739
I11
sg740
I511
ssS'massey'
p1383
(dp1384
g35
S'parting #TRSpam'
p1385
sg37
F1306389684.6259999
sg38
I192
sg39
I2855
ssS'we'
p1386
(dp1387
S'action'
p1388
S'changing nick to hannerz'
p1389
sS'secs'
p1390
F1312696812.2249999
sS'lines'
p1391
I29
sS'chars'
p1392
I716
ssS'saberuk|out'
p1393
(dp1394
g130
S'changing nick to SaberUK'
p1395
sg132
F1315927591.4749999
sg133
I0
sg134
I0
ssS'fallout|workingout'
p1396
(dp1397
g288
S'changing nick to Fallout10mm'
p1398
sg290
F1304810835.881
sg291
I11
sg292
I99
ssS'neatchee'
p1399
(dp1400
g449
S'changing nick to neatchee|Swype'
p1401
sg451
F1315494691.1530001
sg452
I0
sg453
I0
ssS'minibill'
p1402
(dp1403
g25
S'speaking in #boats'
p1404
sg27
F1305374683.582
sg28
I26
sg29
I1230
ssS'tyrion'
p1405
(dp1406
g239
S'quitting with: Quit: http://www.mibbit.com ajax IRC Client'
p1407
sg241
F1316319608.1070001
sg242
I145
sg243
I2904
ssS'atry'
p1408
(dp1409
g420
S'quitting with: Quit: http://www.mibbit.com ajax IRC Client'
p1410
sg422
F1315328337.4130001
sg423
I86
sg424
I2374
ssS'guest38217'
p1411
(dp1412
g181
S'changing nick to titsos'
p1413
sg183
F1316262687.658
sg184
I0
sg185
I0
ssS'mage'
p1414
(dp1415
g130
S'quitting with: Quit: When hungry, eat; When tired, sleep;'
p1416
sg132
F1316075636.3410001
sg133
I0
sg134
I0
ssS'local2'
p1417
(dp1418
g42
S'joining #uespwiki'
p1419
sg44
F1316401066.973
sg45
I83
sg46
I8493
ssS'mrsgrime'
p1420
(dp1421
g11
S'quitting with: Quit: '
p1422
sg13
F1295320761.079
sg14
I20
sg15
I1303
ssS'emoboy64'
p1423
(dp1424
g239
S'quitting with: Quit: If you think nobody cares, try missing a few payments'
p1425
sg241
F1313104717.0610001
sg242
I907
sg243
I26659
ssS'anonytroll'
p1426
(dp1427
g11
S'quitting with: Quit: Verlassend'
p1428
sg13
F1316373129.7049999
sg14
I726
sg15
I32164
ssS'andres|busyish'
p1429
(dp1430
g374
S'changing nick to Andres'
p1431
sg376
F1297304311.0179999
sg377
I86
sg378
I3367
ssS'scamp'
p1432
(dp1433
g42
S'quitting with: Quit: GNAR'
p1434
sg44
F1316377049.1029999
sg45
I543
sg46
I10730
ssS'averus'
p1435
(dp1436
g130
S'quitting with: Quit: '
p1437
sg132
F1315865248.53
sg133
I0
sg134
I0
ssS'al|university'
p1438
(dp1439
g18
S'changing nick to Alchemist'
p1440
sg20
F1315811841.349
sg21
I0
sg22
I0
ssS'probablykai'
p1441
(dp1442
g113
S'changing nick to probablyasleep'
p1443
sg115
F1312620644.099
sg116
I11
sg117
I275
ssS'riddle'
p1444
(dp1445
g42
S'quitting with: Quit: '
p1446
sg44
F1315885118.4920001
sg45
I187
sg46
I6129
ssS'optimiyu'
p1447
(dp1448
g113
S'quitting with: Quit: For the golden millennium'
p1449
sg115
F1312943560.427
sg116
I54
sg117
I1862
ssS'elliot'
p1450
(dp1451
g35
S'parting #uespwiki'
p1452
sg37
F1311397604.0280001
sg38
I105
sg39
I2738
ssS'iwakura'
p1453
(dp1454
g449
S'quitting'
p1455
sg451
F1315500847.3440001
sg452
I6
sg453
I340
ssS'bluaki'
p1456
(dp1457
g123
S'joining #Equilibrium'
p1458
sg125
F1316317085.1589999
sg126
I0
sg127
I0
ssS'anti'
p1459
(dp1460
g42
S'quitting with: Quit: Leaving'
p1461
sg44
F1312771092.1429999
sg45
I1939
sg46
I63862
ssS'yazdmich_'
p1462
(dp1463
g181
S'changing nick to yazdmich'
p1464
sg183
F1316292804.8759999
sg184
I0
sg185
I0
ssS'bofh|remote'
p1465
(dp1466
g100
S'speaking in #boats'
p1467
sg102
F1299984554.4519999
sg103
I11
sg104
I563
ssS'lissa_'
p1468
(dp1469
g18
S'quitting with: Ping timeout'
p1470
sg20
F1315545114.9330001
sg21
I0
sg22
I0
ssS'pasko|derp'
p1471
(dp1472
g52
S'quitting with: Quit: http://www.mibbit.com ajax IRC Client'
p1473
sg54
F1302460159.9590001
sg55
I18
sg56
I267
ssS'pasko|nakeds'
p1474
(dp1475
S'action'
p1476
S'changing nick to pasko'
p1477
sS'secs'
p1478
F1303365695.391
sS'lines'
p1479
I31
sS'chars'
p1480
I1114
ssS'edogy'
p1481
(dp1482
g100
S'quitting with: Quit: http://www.mibbit.com ajax IRC Client'
p1483
sg102
F1299781246.599
sg103
I12
sg104
I619
ssS'alphur'
p1484
(dp1485
g18
S'quitting with: Quit: has joined'
p1486
sg20
F1315891429.4519999
sg21
I0
sg22
I0
ssS'lu'
p1487
(dp1488
g18
S'changing nick to Guest24785'
p1489
sg20
F1315749834.473
sg21
I0
sg22
I0
ssS'combined'
p1490
(dp1491
g239
S'quitting with: Quit: '
p1492
sg241
F1311622416.1889999
sg242
I505
sg243
I16460
ssS'sniper430_'
p1493
(dp1494
g130
S'quitting with: Client exited'
p1495
sg132
F1316033106.312
sg133
I0
sg134
I0
ssS'priski'
p1496
(dp1497
g130
S'speaking in #devart'
p1498
sg132
F1315988234.0220001
sg133
I53
sg134
I2654
ssS'dremorathunda'
p1499
(dp1500
g181
S'quitting with: Quit: http://www.mibbit.com ajax IRC Client'
p1501
sg183
F1316297935.345
sg184
I1
sg185
I15
ssS'f00d'
p1502
(dp1503
g239
S'quitting with: Quit: Sorry for upsetting you'
p1504
sg241
F1315974548.8770001
sg242
I11
sg243
I163
ssS'glados'
p1505
(dp1506
g339
S"quitting with: Quit: There's science to do"
p1507
sg341
F1303946001.007
sg342
I14
sg343
I464
ssS'andres'
p1508
(dp1509
g42
S'changing nick from Andres|Zzzz'
p1510
sg44
F1314246670.783
sg45
I645
sg46
I21733
ssS'nrg'
p1511
(dp1512
g1188
S'quitting with: Quit: http://www.mibbit.com ajax IRC Client'
p1513
sg1190
F1311201822.8269999
sg1191
I14
sg1192
I275
ssS'_3xp'
p1514
(dp1515
g76
S'parting #devart'
p1516
sg78
F1298714478.7820001
sg79
I15
sg80
I582
ssS'miki'
p1517
(dp1518
g130
S'quitting with: Quit: Leaving'
p1519
sg132
F1315835390.9489999
sg133
I0
sg134
I0
ssS'lepr'
p1520
(dp1521
g632
S'joining #boats'
p1522
sg634
F1313691529.5239999
sg635
I34
sg636
I1401
ssS'flechmen'
p1523
(dp1524
g267
S'changing nick from Flechmen_Away'
p1525
sg269
F1316395021.7939999
sg270
I55
sg271
I3431
ssS'notthatfaggotiswear'
p1526
(dp1527
g113
S'changing nick to probablykai'
p1528
sg115
F1312620021.3800001
sg116
I31
sg117
I709
ssS'exxodium_'
p1529
(dp1530
g374
S'quitting with: Quit: Leaving'
p1531
sg376
F1315907287.8529999
sg377
I79
sg378
I1902
ssS'adk'
p1532
(dp1533
g42
S'speaking in #necrolounge'
p1534
sg44
F1316396053.6370001
sg45
I6212
sg46
I218998
ssS'crayboff'
p1535
(dp1536
g93
S'speaking in #boats'
p1537
sg95
F1314491279.312
sg96
I1795
sg97
I58781
ssS's_arms'
p1538
(dp1539
g181
S'quitting with: Ping timeout: 121 seconds'
p1540
sg183
F1316353648.1949999
sg184
I0
sg185
I0
ssS'bure1'
p1541
(dp1542
g288
S'joining #TRSpam'
p1543
sg290
F1314081175.3280001
sg291
I66
sg292
I1884
ssS'richter'
p1544
(dp1545
g181
S'changing nick to Sync'
p1546
sg183
F1316336263.464
sg184
I0
sg185
I0
ssS'eugenebeer[2]'
p1547
(dp1548
g18
S'changing nick to EugeneBeer[3]'
p1549
sg20
F1315763313.845
sg21
I0
sg22
I0
ssS'melic'
p1550
(dp1551
g18
S'joining #boats'
p1552
sg20
F1316154039.227
sg21
I0
sg22
I0
ssS'tf|afk'
p1553
(dp1554
g239
S'quitting with: Ping timeout: 121 seconds'
p1555
sg241
F1304742399.806
sg242
I37
sg243
I1368
ssS'ducky'
p1556
(dp1557
g1259
S'parting #bots for: Leaving'
p1558
sg1261
F1306107985.5190001
sg1262
I25
sg1263
I900
ssS'mjf25'
p1559
(dp1560
g561
S'quitting with: Quit: Make it idiot proof and someone will make a better idiot.'
p1561
sg563
F1307847138.2550001
sg564
I11
sg565
I275
ssS'coonhoot'
p1562
(dp1563
g25
S'quitting with: Ping timeout: 121 seconds'
p1564
sg27
F1311540068.1889999
sg28
I616
sg29
I16193
ssS'krusty'
p1565
(dp1566
g42
S'quitting with: Client exited'
p1567
sg44
F1316394281.744
sg45
I1898
sg46
I88959
ssS'operserv'
p1568
(dp1569
g130
S'kicking Exxodium from #necrolounge for: Teksura (This is for pinging me with your opreassion!)'
p1570
sg132
F1315861971.2360001
sg133
I0
sg134
I0
ssS'protoboy'
p1571
(dp1572
g62
S'joining #uespwiki'
p1573
sg64
F1316400654.99
sg65
I56
sg66
I1868
ssS'aifarrah'
p1574
(dp1575
g42
S'quitting with: Quit: http://www.mibbit.com ajax IRC Client'
p1576
sg44
F1316218485.7550001
sg45
I15
sg46
I131
ssS'eugenekay'
p1577
(dp1578
g325
S'speaking in #necrolounge'
p1579
sg327
F1316400854.503
sg328
I6384
sg329
I218526
ssS'hallfiry'
p1580
(dp1581
g520
S'quitting with: Quit: http://www.mibbit.com ajax IRC Client'
p1582
sg522
F1300997237.092
sg523
I54
sg524
I2374
ssS'pasko1'
p1583
(dp1584
g130
S'changing nick to pasko'
p1585
sg132
F1316020990.8729999
sg133
I0
sg134
I0
ssS'tooly_'
p1586
(dp1587
g384
S'speaking in #bots'
p1588
sg386
F1314487431.7190001
sg387
I60
sg388
I2772
ssS'kizc'
p1589
(dp1590
g681
S'quitting with: Quit: Hard work pays off in the future, laziness pays off now'
p1591
sg683
F1316368333.1400001
sg684
I186
sg685
I11578
ssS'lind[a]a'
p1592
(dp1593
g181
S'changing nick to LinDaa'
p1594
sg183
F1316239031.059
sg184
I0
sg185
I0
ssS'jakash3'
p1595
(dp1596
g76
S'quitting with: Quit: Leaving'
p1597
sg78
F1314506518.4860001
sg79
I305
sg80
I8901
ssS'things'
p1598
(dp1599
g18
S'changing nick to sannse'
p1600
sg20
F1315797745.8069999
sg21
I0
sg22
I0
ssS'guest86417'
p1601
(dp1602
g130
S'changing nick to Lu2'
p1603
sg132
F1316121944.839
sg133
I0
sg134
I0
ssS'guest86416'
p1604
(dp1605
g130
S'changing nick to LukishO_O'
p1606
sg132
F1316061217.888
sg133
I0
sg134
I0
ssS'dlarsh'
p1607
(dp1608
g281
S'quitting with: Quit: Off Dealing With the Real World'
p1609
sg283
F1315267121.0150001
sg284
I196
sg285
I11350
ssS'clippy'
p1610
(dp1611
g18
S'changing nick to x2x'
p1612
sg20
F1315533919.404
sg21
I0
sg22
I0
ssS'desdemona'
p1613
(dp1614
g11
S'quitting with: Quit: '
p1615
sg13
F1315973871.059
sg14
I9584
sg15
I207255
ssS'coldacid'
p1616
(dp1617
g123
S'joining #uespwiki'
p1618
sg125
F1316382014.829
sg126
I0
sg127
I0
ssS'levelfourtyfour'
p1619
(dp1620
g11
S'quitting with: Client exited'
p1621
sg13
F1295491094.0439999
sg14
I33
sg15
I1067
ssS'neutron'
p1622
(dp1623
g401
S'quitting with: Ping timeout: 121 seconds'
p1624
sg403
F1305005538.609
sg404
I176
sg405
I3911
ssS'x2x'
p1625
(dp1626
g123
S'joining #bots'
p1627
sg125
F1315545433.9990001
sg126
I0
sg127
I0
ssS'ryn|tf2'
p1628
(dp1629
g219
S'changing nick to Ryn238'
p1630
sg221
F1312422271.8900001
sg222
I49
sg223
I713
ssS'soobnauce'
p1631
(dp1632
g123
S'quitting with: Quit: Leaving'
p1633
sg125
F1315355570.227
sg126
I1
sg127
I22
ssS'majic'
p1634
(dp1635
g76
S'changing nick to Paprikachu'
p1636
sg78
F1315348621.3770001
sg79
I450
sg80
I14829
ssS'karjala_s29'
p1637
(dp1638
g76
S'quitting with: Ping timeout: 121 seconds'
p1639
sg78
F1305784069.5369999
sg79
I39
sg80
I2210
ssS'monique'
p1640
(dp1641
g315
S'parting #bots'
p1642
sg317
F1297811512.961
sg318
I44
sg319
I570
ssS'tohsaka_'
p1643
(dp1644
g18
S'changing nick to Tohsaka'
p1645
sg20
F1315611983.5339999
sg21
I0
sg22
I0
ssS'c0ol_her3tic'
p1646
(dp1647
g130
S'quitting with: Quit: Leaving'
p1648
sg132
F1316054146.743
sg133
I0
sg134
I0
ssS'lupin_'
p1649
(dp1650
g843
S'changing nick to Lupin'
p1651
sg845
F1314485305.753
sg846
I31
sg847
I453
ssS'mjf_'
p1652
(dp1653
g274
S'quitting with: Ping timeout'
p1654
sg276
F1307398950.5710001
sg277
I112
sg278
I2751
ssS'guest20835'
p1655
(dp1656
g18
S'quitting with: Client closed the connection'
p1657
sg20
F1315626080.3759999
sg21
I0
sg22
I0
ssS'sevre|reading'
p1658
(dp1659
g18
S'changing nick to Sevre'
p1660
sg20
F1315764078.9779999
sg21
I0
sg22
I0
ssS'sniper|lol'
p1661
(dp1662
g181
S'changing nick to Sniper430'
p1663
sg183
F1316283702.105
sg184
I0
sg185
I0
ssS'nameless'
p1664
(dp1665
g42
S'speaking in #boats'
p1666
sg44
F1316399523.563
sg45
I5895
sg46
I174904
ssS'paskos'
p1667
(dp1668
g456
S'changing nick to PASKO'
p1669
sg458
F1304468846.704
sg459
I102
sg460
I3033
ssS'salck'
p1670
(dp1671
g420
S'changing nick to slack'
p1672
sg422
F1298330234.5380001
sg423
I27
sg424
I414
ssS'pr3fatum'
p1673
(dp1674
g1169
S'joining #boats'
p1675
sg1171
F1315833665.184
sg1172
I31
sg1173
I948
ssS'parsonsda'
p1676
(dp1677
g123
S'quitting with: Remote host closed the connection'
p1678
sg125
F1315407985.9319999
sg126
I0
sg127
I0
ssS'gec[skeeper]'
p1679
(dp1680
g130
S'quitting with: Ping timeout: 121 seconds'
p1681
sg132
F1315952958.9530001
sg133
I0
sg134
I0
ssS'atry|'
p1682
(dp1683
g93
S'changing nick to Atreus'
p1684
sg95
F1316230171.1960001
sg96
I14
sg97
I176
ssS'neatchee|swype'
p1685
(dp1686
g449
S'changing nick from neatchee|AWAY'
p1687
sg451
F1316364708.0880001
sg452
I8
sg453
I139
ssS'where_'
p1688
(dp1689
g123
S'changing nick to where'
p1690
sg125
F1315344927.852
sg126
I0
sg127
I0
ssS'kb9'
p1691
(dp1692
g123
S"quitting with: Quit: hey, wait! DON'T PUSH THAT *Click*  *@#$(*# NO CARRIER"
p1693
sg125
F1316141140.0610001
sg126
I0
sg127
I0
ssS'eugenebeer[5]'
p1694
(dp1695
g18
S'changing nick to EugeneBeer[6]'
p1696
sg20
F1315769386.3570001
sg21
I0
sg22
I0
ssS'hannerz_'
p1697
(dp1698
g420
S'quitting with: Quit: leaving'
p1699
sg422
F1305496060.8770001
sg423
I60
sg424
I1393
ssS'ransomtime'
p1700
(dp1701
g123
S'quitting with: Ping timeout: 121 seconds'
p1702
sg125
F1316388334.4790001
sg126
I0
sg127
I0
ssS'andrew'
p1703
(dp1704
g130
S'quitting with: Quit: yay for annoying network notices'
p1705
sg132
F1315939459.925
sg133
I0
sg134
I0
ssS'speady'
p1706
(dp1707
g42
S'quitting'
p1708
sg44
F1316040843.704
sg45
I15
sg46
I551
ssS'sonatawraith'
p1709
(dp1710
g123
S'changing nick to Ringwraith'
p1711
sg125
F1315780383.4679999
sg126
I0
sg127
I0
ssS'skah'
p1712
(dp1713
g93
S'quitting with: Quit: http://www.mibbit.com ajax IRC Client'
p1714
sg95
F1306912090.6489999
sg96
I49
sg97
I1090
ssS'newton'
p1715
(dp1716
g239
S'speaking in #devart'
p1717
sg241
F1316191765.6860001
sg242
I1054
sg243
I23088
ssS'lisimba2'
p1718
(dp1719
g181
S'changing nick to Lisimba'
p1720
sg183
F1316378902.48
sg184
I0
sg185
I0
ssS'kingtarquin'
p1721
(dp1722
g146
S'speaking in #internet'
p1723
sg148
F1315957657.8759999
sg149
I517
sg150
I20246
ssS'tf|work'
p1724
(dp1725
g18
S'changing nick to TF|'
p1726
sg20
F1316156039.5120001
sg21
I0
sg22
I0
ssS'prokchip'
p1727
(dp1728
g384
S'getting kicked from #boats by nameless for: nameless'
p1729
sg386
F1313644089.0829999
sg387
I110
sg388
I2868
ssS'xes'
p1730
(dp1731
g561
S'quitting with: Quit: Leaving'
p1732
sg563
F1307921333.352
sg564
I15
sg565
I467
ssS'guestlounger'
p1733
(dp1734
g281
S'quitting with: Quit: http://www.mibbit.com ajax IRC Client'
p1735
sg283
F1307457544.7179999
sg284
I82
sg285
I2206
ssS'rynrynryn'
p1736
(dp1737
g18
S'changing nick to Ryn'
p1738
sg20
F1315513885.9230001
sg21
I8
sg22
I161
ssS'tf|vet'
p1739
(dp1740
g789
S'speaking in #TRSpam'
p1741
sg791
F1314502314.1229999
sg792
I13
sg793
I539
ssS'sevintheshower'
p1742
(dp1743
g18
S'changing nick to Sevre'
p1744
sg20
F1315780600.5639999
sg21
I0
sg22
I0
ssS'skynette'
p1745
(dp1746
g919
S'speaking in #boats'
p1747
sg921
F1316391091.9419999
sg922
I228
sg923
I11443
ssS'tf|sleep'
p1748
(dp1749
g288
S'changing nick to TF|'
p1750
sg290
F1315940485.3399999
sg291
I31
sg292
I1445
ssS'alexandr1'
p1751
(dp1752
g1188
S'joining #uespwiki'
p1753
sg1190
F1311705513.0869999
sg1191
I21
sg1192
I1177
ssS'sp00kd'
p1754
(dp1755
g18
S'changing nick to sp00kz'
p1756
sg20
F1315834020.082
sg21
I0
sg22
I0
ssS'lupin'
p1757
(dp1758
g42
S'quitting with: Quit: Man who run behind car get exhausted'
p1759
sg44
F1316392585.675
sg45
I10043
sg46
I223923
ssS'adzbe'
p1760
(dp1761
g113
S'changing nick to abzde'
p1762
sg115
F1312411002.0450001
sg116
I59
sg117
I1317
ssS'sp00kz'
p1763
(dp1764
g219
S'changing nick from sp00kd'
p1765
sg221
F1315834020.082
sg222
I833
sg223
I16795
ssS'adk__'
p1766
(dp1767
S'action'
p1768
S'quitting with: Quit: Best thing about killing hookers is the make-up sex'
p1769
sS'secs'
p1770
F1316246671.9979999
sS'lines'
p1771
I15
sS'chars'
p1772
I1117
ssS'ikoru'
p1773
(dp1774
g384
S'quitting with: Quit: http://www.mibbit.com ajax IRC Client'
p1775
sg386
F1313706550.194
sg387
I32
sg388
I2206
ssS'sannse'
p1776
(dp1777
g325
S'quitting with: Ping timeout: 260 seconds'
p1778
sg327
F1316325763.155
sg328
I1658
sg329
I61525
ssS'sev|makingdinner'
p1779
(dp1780
g130
S'quitting with: Client closed the connection'
p1781
sg132
F1315833262.5910001
sg133
I0
sg134
I0
ssS'guest62020'
p1782
(dp1783
g130
S'quitting with: Ping timeout: 259 seconds'
p1784
sg132
F1315808542.0480001
sg133
I0
sg134
I0
ssS'guest31807'
p1785
(dp1786
g123
S'changing nick to Guest31807|away'
p1787
sg125
F1315391297.75
sg126
I0
sg127
I0
ssS'atry|away'
p1788
(dp1789
g42
S'changing nick to Atreus'
p1790
sg44
F1316367786.4219999
sg45
I530
sg46
I15143
ssS'gregoryn'
p1791
(dp1792
g239
S'joining #bots'
p1793
sg241
F1316390719.835
sg242
I295
sg243
I8818
ssS'snark'
p1794
(dp1795
g123
S'joining #bots'
p1796
sg125
F1316060819.698
sg126
I0
sg127
I0
ssS'vincentvega'
p1797
(dp1798
g52
S'quitting with: Client exited'
p1799
sg54
F1302375857.948
sg55
I62
sg56
I1925
ssS'nappz'
p1800
(dp1801
g62
S'quitting with: Ping timeout: 121 seconds'
p1802
sg64
F1296360168.474
sg65
I18
sg66
I1284
ssS'chanserv'
p1803
(dp1804
S'action'
p1805
S'joining #uespdrama'
p1806
sS'secs'
p1807
F1316382566.029
sS'lines'
p1808
I0
sS'chars'
p1809
I0
ssS'shadow'
p1810
(dp1811
g530
S'parting #devart'
p1812
sg532
F1312996026.4330001
sg533
I36
sg534
I385
ssS'wakko214'
p1813
(dp1814
S'action'
p1815
S'quitting with: Client Quit'
p1816
sS'secs'
p1817
F1303680493.9519999
sS'lines'
p1818
I102
sS'chars'
p1819
I1929
ssS'vanity'
p1820
(dp1821
g130
S'quitting with: Ping timeout: 121 seconds'
p1822
sg132
F1316215117.0039999
sg133
I0
sg134
I0
ssS'adk_'
p1823
(dp1824
g267
S'speaking in #necrolounge'
p1825
sg269
F1316396301.4119999
sg270
I95
sg271
I3730
ssS'kaminoyouni'
p1826
(dp1827
g219
S'joining #uespwiki'
p1828
sg221
F1310791980.941
sg222
I50
sg223
I2783
ssS'dogfart'
p1829
(dp1830
g62
S'changing nick to dogfort'
p1831
sg64
F1295914524.6960001
sg65
I11
sg66
I311
ssS'chr1s_'
p1832
(dp1833
g181
S'quitting with: Ping timeout: 121 seconds'
p1834
sg183
F1316166466.835
sg184
I0
sg185
I0
ssS'eugenesomething'
p1835
(dp1836
g18
S'changing nick to EugeneNothing'
p1837
sg20
F1315614808.957
sg21
I8
sg22
I162
ssS'patrick'
p1838
(dp1839
g384
S'quitting with: Quit: Leaving'
p1840
sg386
F1315278246.4760001
sg387
I56
sg388
I1409
ssS'katrie'
p1841
(dp1842
g113
S'joining #boats'
p1843
sg115
F1316163096.3570001
sg116
I17
sg117
I266
ssS'sanity'
p1844
(dp1845
g11
S'quitting with: Quit: '
p1846
sg13
F1315537853.323
sg14
I69
sg15
I977
ssS'eugeneeverything'
p1847
(dp1848
g18
S'changing nick to EugeneKay'
p1849
sg20
F1315706496.7479999
sg21
I4
sg22
I168
ssS'spitfire'
p1850
(dp1851
g18
S'joining #bots'
p1852
sg20
F1315545433.997
sg21
I0
sg22
I0
ssS'kai_'
p1853
(dp1854
g239
S'quitting with: Killed (NickServ (GHOST command used by nameless!root@mindjail.subluminal.net))'
p1855
sg241
F1311657003.217
sg242
I1029
sg243
I24280
ssS'eugenek'
p1856
(dp1857
g267
S'changing nick to EugeneKay'
p1858
sg269
F1313671021.8329999
sg270
I72
sg271
I2409
ssS'eugenebeer[6]'
p1859
(dp1860
g18
S'changing nick to EugeNap'
p1861
sg20
F1315771120.53
sg21
I0
sg22
I0
ssS'why|away'
p1862
(dp1863
g130
S'changing nick to Why'
p1864
sg132
F1316027071.806
sg133
I0
sg134
I0
ssS'webs'
p1865
(dp1866
g146
S'quitting with: Quit: leaving'
p1867
sg148
F1312633792.0190001
sg149
I194
sg150
I5039
ssS'eugenepants'
p1868
(dp1869
g18
S'changing nick to EugeneSomething'
p1870
sg20
F1315578640.5539999
sg21
I25
sg22
I799
ssS'fallout10mm_'
p1871
(dp1872
g100
S'joining #necrolounge'
p1873
sg102
F1314252937.8380001
sg103
I11
sg104
I403
ssS'guest47915'
p1874
(dp1875
g18
S'quitting with: Client closed the connection'
p1876
sg20
F1315713628.5799999
sg21
I0
sg22
I0
ssS'taros'
p1877
(dp1878
g153
S'speaking in #internet'
p1879
sg155
F1315336256.5280001
sg156
I51
sg157
I1316
ssS'joah'
p1880
(dp1881
g93
S'quitting with: Quit: night'
p1882
sg95
F1316147379.704
sg96
I51
sg97
I647
ssS'blanket_'
p1883
(dp1884
g93
S'changing nick to Tek|Durpa'
p1885
sg95
F1304312062.2360001
sg96
I19
sg97
I639
ssS'chocobro'
p1886
(dp1887
g123
S'joining #uespwiki'
p1888
sg125
F1316347168.9330001
sg126
I0
sg127
I0
ssS'lissa'
p1889
(dp1890
g809
S'quitting with: Connection reset by peer'
p1891
sg811
F1315544292.1040001
sg812
I1156
sg813
I33042
ssS'alu'
p1892
(dp1893
g374
S'quitting with: Client exited'
p1894
sg376
F1298601924.125
sg377
I133
sg378
I6897
ssS'lidyaamilya'
p1895
(dp1896
g736
S'quitting with: G-Lined'
p1897
sg738
F1307104996.905
sg739
I11
sg740
I407
ssS'goga[oep]'
p1898
(dp1899
g18
S'joining #uespwiki'
p1900
sg20
F1315836699.825
sg21
I0
sg22
I0
ssS'foo'
p1901
(dp1902
g288
S'quitting with: Quit: foo'
p1903
sg290
F1314506512.2679999
sg291
I76
sg292
I2634
ssS'dead_beef'
p1904
(dp1905
g281
S'parting #devart for: bye'
p1906
sg283
F1296527377.299
sg284
I17
sg285
I634
ssS'bure'
p1907
(dp1908
g42
S'speaking in #TRSpam'
p1909
sg44
F1316395393.845
sg45
I1524
sg46
I39244
ssS'locutus'
p1910
(dp1911
g4
S'quitting with: Quit: Leaving'
p1912
sg6
F1303087956.8099999
sg7
I94
sg8
I2224
ssS'ferman'
p1913
(dp1914
g374
S'speaking in #necrolounge'
p1915
sg376
F1316390444.029
sg377
I245
sg378
I5558
ssS'sevre90210'
p1916
(dp1917
g18
S'quitting with: Client closed the connection'
p1918
sg20
F1316108029.2149999
sg21
I0
sg22
I0
ssS'dayes'
p1919
(dp1920
g42
S'quitting with: Ping timeout'
p1921
sg44
F1316157353.0599999
sg45
I2740
sg46
I77719
ssS'gr8cthulhu'
p1922
(dp1923
g130
S'joining #bots'
p1924
sg132
F1315986230.3710001
sg133
I0
sg134
I0
ssS'adamlogan'
p1925
(dp1926
g274
S'quitting with: Quit: Leaving.'
p1927
sg276
F1309644972.5699999
sg277
I128
sg278
I4824
ssS'sari'
p1928
(dp1929
g93
S'joining #uespwiki'
p1930
sg95
F1316395791.194
sg96
I19
sg97
I1145
ssS'entomo1'
p1931
(dp1932
g18
S'quitting with: Quit: Page closed'
p1933
sg20
F1315584137.6589999
sg21
I0
sg22
I0
ssS'usc'
p1934
(dp1935
g130
S'quitting with: Ping timeout: 121 seconds'
p1936
sg132
F1316187275.141
sg133
I0
sg134
I0
ssS'guest72344'
p1937
(dp1938
g18
S'changing nick to wolli'
p1939
sg20
F1315704732.5829999
sg21
I0
sg22
I0
ssS'racoon'
p1940
(dp1941
g76
S'quitting with: Client exited'
p1942
sg78
F1298853250.9749999
sg79
I62
sg80
I1648
ssS'proweler'
p1943
(dp1944
g123
S'quitting with: Ping timeout: 121 seconds'
p1945
sg125
F1316385650.562
sg126
I0
sg127
I0
ssS'llamasniper'
p1946
(dp1947
g681
S'quitting with: Ping timeout'
p1948
sg683
F1314477914.2750001
sg684
I33
sg685
I701
ssS'lilmisschaoss'
p1949
(dp1950
g315
S'speaking in #boats'
p1951
sg317
F1302062334.349
sg318
I23
sg319
I574
ssS'snuggleknight'
p1952
(dp1953
g325
S'quitting with: Quit: Some folks are wise, and some otherwise.'
p1954
sg327
F1313903802.6340001
sg328
I542
sg329
I25634
ssS'guest10527'
p1955
(dp1956
g130
S'changing nick to Lukish'
p1957
sg132
F1316092456.0350001
sg133
I0
sg134
I0
ssS'guest60691'
p1958
(dp1959
g123
S'changing nick to wolli'
p1960
sg125
F1315388502.573
sg126
I0
sg127
I0
ssS'napout'
p1961
(dp1962
g274
S'changing nick to Fallout10mm'
p1963
sg276
F1301544867.6919999
sg277
I13
sg278
I193
ssS'dinner'
p1964
(dp1965
g18
S'changing nick to Efreak'
p1966
sg20
F1315734153.4519999
sg21
I0
sg22
I0
ssS'stonr'
p1967
(dp1968
g520
S'quitting'
p1969
sg522
F1302852345.701
sg523
I18
sg524
I627
ssS'profanum'
p1970
(dp1971
g130
S'quitting with: Connection reset by peer'
p1972
sg132
F1316350079.9070001
sg133
I1
sg134
I5
ssS'where'
p1973
(dp1974
g42
S'quitting with: Ping timeout: 121 seconds'
p1975
sg44
F1316379667.908
sg45
I1024
sg46
I18575
ssS'lisimba'
p1976
(dp1977
g18
S'changing nick from Lisimba2'
p1978
sg20
F1316378902.48
sg21
I0
sg22
I0
ssS'eintein'
p1979
(dp1980
g789
S'speaking in #boats'
p1981
sg791
F1316396881.069
sg792
I164
sg793
I2379
ssS'loki|'
p1982
(dp1983
g181
S'changing nick to Loki'
p1984
sg183
F1316169789.079
sg184
I0
sg185
I0
ssS'duke0807'
p1985
(dp1986
g93
S'quitting with: Client exited'
p1987
sg95
F1304536942.9979999
sg96
I20
sg97
I914
ssS'guest92525'
p1988
(dp1989
g130
S'quitting with: Quit: Leaving'
p1990
sg132
F1316081074.2320001
sg133
I0
sg134
I0
ssS'lilmisschaos'
p1991
(dp1992
g42
S'speaking in #boats'
p1993
sg44
F1316156684.6210001
sg45
I1469
sg46
I41894
ssS'guest2697'
p1994
(dp1995
g18
S'quitting with: Ping timeout: 121 seconds'
p1996
sg20
F1315749956.549
sg21
I0
sg22
I0
ssS'des|cello'
p1997
(dp1998
g281
S'changing nick to Desdemona'
p1999
sg283
F1309998219.773
sg284
I12
sg285
I315
ssS'mk_'
p2000
(dp2001
g181
S'quitting with: Quit: Reconnecting'
p2002
sg183
F1316247840.9349999
sg184
I0
sg185
I0
ssS'eugenenothing'
p2003
(dp2004
g18
S'changing nick to EugeneEverything'
p2005
sg20
F1315643825.2160001
sg21
I4
sg22
I50
ssS'des|dnd'
p2006
(dp2007
g206
S'changing nick to Desdemona'
p2008
sg208
F1313244974.3440001
sg209
I13
sg210
I298
ssS'suds_'
p2009
(dp2010
g18
S'quitting with: Client closed the connection'
p2011
sg20
F1316149935.0409999
sg21
I0
sg22
I0
ssS'i'
(dp2012
g93
S'changing nick to Xhu'
p2013
sg95
F1316184929.8829999
sg96
I33
sg97
I857
ssS'agentp214'
p2014
(dp2015
g809
S'quitting with: Remote host closed the connection'
p2016
sg811
F1315618216.381
sg812
I177
sg813
I3440
ssS'tekbot'
p2017
(dp2018
g42
S'speaking in #necrolounge'
p2019
sg44
F1316393484.2420001
sg45
I160
sg46
I2748
ssS'you_'
p2020
(dp2021
g113
S'changing nick to You'
p2022
sg115
F1312396954.1659999
sg116
I11
sg117
I256
ssS'ares'
p2023
(dp2024
g288
S'speaking in #boats'
p2025
sg290
F1315807264.342
sg291
I180
sg292
I5625
ssS'sniffles'
p2026
(dp2027
g130
S'quitting with: Quit: ChatZilla 0.9.87 [Firefox 6.0.2/20110902133214]'
p2028
sg132
F1316065209.3010001
sg133
I10
sg134
I790
ssS'rich246'
p2029
(dp2030
g130
S'quitting with: Ping timeout: 264 seconds'
p2031
sg132
F1316191689.7909999
sg133
I2
sg134
I110
ssS'guest48156'
p2032
(dp2033
g18
S'quitting with: Connection reset by peer'
p2034
sg20
F1315745818.5569999
sg21
I0
sg22
I0
ssS'anti|athair'
p2035
(dp2036
g267
S'quitting with: Quit: Anti|Athair'
p2037
sg269
F1305424378.941
sg270
I18
sg271
I467
ssS'psychon'
p2038
(dp2039
g123
S'quitting with: Ping timeout: 121 seconds'
p2040
sg125
F1316384212.6199999
sg126
I27
sg127
I1569
ssS'adward|ipod'
p2041
(dp2042
g736
S'joining #necrolounge'
p2043
sg738
F1316214685.8429999
sg739
I34
sg740
I658
ssS'maasd'
p2044
(dp2045
g62
S'quitting with: Quit: When the chips are down, well, the buffalo is empty'
p2046
sg64
F1299052755.1199999
sg65
I280
sg66
I12987
ssS'why_'
p2047
(dp2048
g18
S'quitting with: Connection reset by peer'
p2049
sg20
F1316367429.7590001
sg21
I0
sg22
I0
ssS'cyadora'
p2050
(dp2051
g439
S'quitting with: Quit: Never put off until tomorrow something you can pay to have done faster.'
p2052
sg441
F1316396607.207
sg442
I123
sg443
I2244
ssS'drakno'
p2053
(dp2054
g420
S'quitting with: Client exited'
p2055
sg422
F1297661064.244
sg423
I40
sg424
I913
ssS'sev|tf2'
p2056
(dp2057
g130
S'changing nick to Sevre'
p2058
sg132
F1315960839.8150001
sg133
I0
sg134
I0
ssS'tonymec'
p2059
(dp2060
g35
S'joining #devart'
p2061
sg37
F1316367823.2639999
sg38
I12
sg39
I373
ssS'anonyscamp'
p2062
(dp2063
g52
S'quitting with: Quit: Ex-Chat'
p2064
sg54
F1302385214.0710001
sg55
I13
sg56
I593
ssS'lukisho_o'
p2065
(dp2066
g130
S'quitting with: Connection reset by peer'
p2067
sg132
F1316064272.4660001
sg133
I0
sg134
I0
ssS'anti|mvc3'
p2068
(dp2069
g439
S'changing nick to Anti'
p2070
sg441
F1302660141.717
sg442
I39
sg443
I1278
ssS'phallusin'
p2071
(dp2072
g130
S'quitting with: Read error: Operation timed out'
p2073
sg132
F1315932165.1429999
sg133
I0
sg134
I0
ssS'rush'
p2074
(dp2075
g62
S'speaking in #uespwiki'
p2076
sg64
F1299040210.4289999
sg65
I19
sg66
I671
ssS'slamsteve'
p2077
(dp2078
g35
S'quitting with: Quit: SlamSteve'
p2079
sg37
F1305157564.835
sg38
I15
sg39
I380
ssS'guest58601'
p2080
(dp2081
g130
S'quitting with: Quit: Leaving'
p2082
sg132
F1315982744.5020001
sg133
I0
sg134
I0
ssS'maggo'
p2083
(dp2084
g229
S'quitting with: Ping timeout: 121 seconds'
p2085
sg231
F1316388765.52
sg232
I13
sg233
I633
ssS'hvalek'
p2086
(dp2087
g420
S'changing nick to Guest65427'
p2088
sg422
F1298603173.4419999
sg423
I413
sg424
I6000
ssS'bucket'
p2089
(dp2090
g42
S'joining #bots'
p2091
sg44
F1316139701.9590001
sg45
I443
sg46
I24222
ssS'godcheese|work'
p2092
(dp2093
g4
S'quitting with: Ping timeout: 260 seconds'
p2094
sg6
F1315688060.345
sg7
I43
sg8
I2313
ssS'aeven'
p2095
(dp2096
g420
S'parting #TRSpam'
p2097
sg422
F1304851152.1110001
sg423
I16
sg424
I362
ssS'cat1'
p2098
(dp2099
g123
S'changing nick to Cat'
p2100
sg125
F1315344541.6900001
sg126
I0
sg127
I0
ssS'ivbela1'
p2101
(dp2102
g18
S'quitting with: Ping timeout: 121 seconds'
p2103
sg20
F1315588459.8180001
sg21
I0
sg22
I0
ssS'dritz'
p2104
(dp2105
g239
S'speaking in #boats'
p2106
sg241
F1316391107.5190001
sg242
I5116
sg243
I221922
ssS'static'
p2107
(dp2108
g420
S'parting #uespwiki'
p2109
sg422
F1299407862.342
sg423
I132
sg424
I3510
ssS'snowwraith'
p2110
(dp2111
g123
S'changing nick to Ringwraith|Disgaea4'
p2112
sg125
F1316380043.171
sg126
I0
sg127
I0
ssS'fallout|persona4'
p2113
(dp2114
g384
S'changing nick to Fallout10mm'
p2115
sg386
F1313801092.2190001
sg387
I20
sg388
I625
ssS'eugenap'
p2116
(dp2117
g18
S'changing nick to EugeneKay'
p2118
sg20
F1315828182.5239999
sg21
I3
sg22
I35
ssS'ad'
p2119
(dp2120
g93
S'quitting with: Ping timeout'
p2121
sg95
F1304406562.1059999
sg96
I21
sg97
I393
ssS'greentard'
p2122
(dp2123
g561
S'quitting with: Ping timeout: 121 seconds'
p2124
sg563
F1307689529.618
sg564
I52
sg565
I6962
ssS'wakkowarn'
p2125
(dp2126
g76
S'quitting with: Remote host closed the connection'
p2127
sg78
F1301451107.2249999
sg79
I339
sg80
I3754
ssS'abzde'
p2128
(dp2129
g42
S'speaking in #boats'
p2130
sg44
F1316399212.372
sg45
I4667
sg46
I92463
ssS'shmulik'
p2131
(dp2132
g18
S'joining #bots'
p2133
sg20
F1315547543.2590001
sg21
I0
sg22
I0
ssS'velothi'
p2134
(dp2135
g130
S'quitting with: Connection reset by peer'
p2136
sg132
F1316062945.6900001
sg133
I10
sg134
I338
ssS'saberuk'
p2137
(dp2138
g69
S'speaking in #internet'
p2139
sg71
F1316174882.3299999
sg72
I74
sg73
I2159
ssS'where|doingstuff'
p2140
(dp2141
g130
S'changing nick to where|Afk'
p2142
sg132
F1315977476.5699999
sg133
I0
sg134
I0
ssS'dz_jad'
p2143
(dp2144
g123
S'quitting with: Quit: Leaving'
p2145
sg125
F1315360519.062
sg126
I0
sg127
I0
ssS'emoboy64|dinner'
p2146
(dp2147
g520
S'changing nick to Emoboy64'
p2148
sg522
F1300995759.859
sg523
I11
sg524
I233
ssS'ev'
p2149
(dp2150
g420
S'joining #devart'
p2151
sg422
F1315513225.3329999
sg423
I345
sg424
I9515
ssS'guest552'
p2152
(dp2153
g18
S'changing nick to Why'
p2154
sg20
F1315574287.325
sg21
I0
sg22
I0
ssS'lissasleep'
p2155
(dp2156
g456
S'speaking in #necrolounge'
p2157
sg458
F1303851820.1800001
sg459
I11
sg460
I315
ssS'al|sleep'
p2158
(dp2159
g18
S'quitting with: Quit: She smiles while she crushes me'
p2160
sg20
F1315866510.414
sg21
I0
sg22
I0
ssS'hisdem'
p2161
(dp2162
g86
S'quitting with: Quit: Textual IRC Client: http://www.textualapp.com/'
p2163
sg88
F1314468927.612
sg89
I199
sg90
I4234
ssS'chaos95'
p2164
(dp2165
g42
S'speaking in #boats'
p2166
sg44
F1316145320.733
sg45
I1187
sg46
I49142
ssS'shannon'
p2167
(dp2168
g11
S'quitting with: Quit: ChatZilla 0.9.86 [Firefox 3.6.13/20101203075014]'
p2169
sg13
F1295738413.194
sg14
I41
sg15
I1598
ssS'sporks'
p2170
(dp2171
g239
S'joining #Equilibrium'
p2172
sg241
F1316241226.0699999
sg242
I20
sg243
I780
ssS'randomtime'
p2173
(dp2174
g42
S'changing nick to RansomTime'
p2175
sg44
F1316282415.8699999
sg45
I23
sg46
I560
ssS'you'
p2176
(dp2177
g11
S'joining #boats'
p2178
sg13
F1315833664.9200001
sg14
I5136
sg15
I172890
ssS'higurashi'
p2179
(dp2180
g281
S'quitting with: Quit: All the world is yours to keep~ All you have to do is walk with me~'
p2181
sg283
F1316386916.454
sg284
I22
sg285
I702
ssS'mirrepp_'
p2182
(dp2183
g239
S'joining #devart'
p2184
sg241
F1316369301.973
sg242
I606
sg243
I18263
ssS'nanakhiel'
p2185
(dp2186
g130
S'quitting with: Ping timeout: 265 seconds'
p2187
sg132
F1316271988.4030001
sg133
I0
sg134
I0
ssS'artemis2'
p2188
(dp2189
g18
S'joining #boats'
p2190
sg20
F1316236601.2939999
sg21
I0
sg22
I0
ssS'hellow'
p2191
(dp2192
g632
S'quitting with: Ping timeout'
p2193
sg634
F1315506477.253
sg635
I28
sg636
I600
ssS'why'
p2194
(dp2195
g520
S'quitting with: Quit: Leaving'
p2196
sg522
F1316367374.9579999
sg523
I28
sg524
I568
ssS'kindari'
p2197
(dp2198
g281
S'speaking in #necrolounge'
p2199
sg283
F1316397676.609
sg284
I3466
sg285
I140844
ssS'mjf5'
p2200
(dp2201
g1237
S'changing nick to mjf'
p2202
sg1239
F1307409588.6110001
sg1240
I80
sg1241
I2415
ssS'pasko|naked'
p2203
(dp2204
g339
S'changing nick to pasko'
p2205
sg341
F1303968275.747
sg342
I49
sg343
I1257
ssS'samsmart'
p2206
(dp2207
g42
S'speaking in #necrolounge'
p2208
sg44
F1316395369.803
sg45
I4717
sg46
I130256
ssS'guest19425'
p2209
(dp2210
g181
S'changing nick to titsos'
p2211
sg183
F1316179275.7149999
sg184
I0
sg185
I0
ssS'db9`'
p2212
(dp2213
g1237
S'changing nick to db9'
p2214
sg1239
F1307501640.408
sg1240
I55
sg1241
I1426
ssS'vivithemage'
p2215
(dp2216
g123
S'quitting with: Client closed the connection'
p2217
sg125
F1315404294.0450001
sg126
I0
sg127
I0
ssS'gixxerman'
p2218
(dp2219
g130
S'quitting with: Ping timeout: 264 seconds'
p2220
sg132
F1316369597.872
sg133
I3
sg134
I50
ssS'exxodium'
p2221
(dp2222
g281
S'speaking in #necrolounge'
p2223
sg283
F1316393691.7590001
sg284
I3304
sg285
I110710
ssS'v3nd3tta`'
p2224
(dp2225
g69
S'quitting with: Quit: I HJACK /QUIT :D'
p2226
sg71
F1316363929.589
sg72
I20
sg73
I1316
ssS'adam'
p2227
(dp2228
g456
S'changing nick to Adward'
p2229
sg458
F1303749183.97
sg459
I126
sg460
I1992
ss.