(dp1
S'boreeasbot'
p2
(dp3
S'action'
p4
S'quitting with: Quit: BoreeasBot'
p5
sS'secs'
p6
F1303521515.7179999
sS'lines'
p7
I106
sS'chars'
p8
I2855
ssS'holy_grahl'
p9
(dp10
S'action'
p11
S'joining #TRSpam'
p12
sS'secs'
p13
F1316352031.8110001
sS'lines'
p14
I56
sS'chars'
p15
I1967
ssS'caity'
p16
(dp17
S'action'
p18
S'speaking in #boats'
p19
sS'secs'
p20
F1313658173.493
sS'lines'
p21
I177
sS'chars'
p22
I5478
ssS'haggz'
p23
(dp24
S'action'
p25
S'quitting with: Quit: http://www.mibbit.com ajax IRC Client'
p26
sS'secs'
p27
F1305196105.0469999
sS'lines'
p28
I13
sS'chars'
p29
I839
ssS'cartis^'
p30
(dp31
S'action'
p32
S'quitting with: Client closed the connection'
p33
sS'secs'
p34
F1316329584.0469999
sS'lines'
p35
I17
sS'chars'
p36
I281
ssS'gk'
p37
(dp38
g32
S'quitting with: Quit: Some folks are wise, and some otherwise.'
p39
sg34
F1305284075.4860001
sg35
I378
sg36
I16819
ssS'emily'
p40
(dp41
S'action'
p42
S'changing nick to where|Doingstuff'
p43
sS'secs'
p44
F1315967643.6459999
sS'lines'
p45
I84
sS'chars'
p46
I1691
ssS'boreeas'
p47
(dp48
g4
S'quitting with: Quit: The Game'
p49
sg6
F1311682547.175
sg7
I400
sg8
I7544
ssS'wormdrink'
p50
(dp51
S'action'
p52
S'quitting with: Ping timeout: 264 seconds'
p53
sS'secs'
p54
F1295978042.1849999
sS'lines'
p55
I16
sS'chars'
p56
I383
ssS'ephos'
p57
(dp58
S'action'
p59
S'quitting with: Client exited'
p60
sS'secs'
p61
F1312886632.0450001
sS'lines'
p62
I13
sS'chars'
p63
I389
ssS'tron_lega'
p64
(dp65
S'action'
p66
S'quitting with: Quit: ChatZilla 0.9.86 [Firefox 3.6.13/20101203075014]'
p67
sS'secs'
p68
F1298589084.2379999
sS'lines'
p69
I11
sS'chars'
p70
I306
ssS'megaman'
p71
(dp72
g52
S'quitting with: Client exited'
p73
sg54
F1295839621.813
sg55
I13
sg56
I319
ssS'nameless|starbucks'
p74
(dp75
S'action'
p76
S'quitting with: Quit: And now I go back to work'
p77
sS'secs'
p78
F1301881164.526
sS'lines'
p79
I20
sS'chars'
p80
I407
ssS'pandavskii'
p81
(dp82
S'action'
p83
S'parting #necrolounge'
p84
sS'secs'
p85
F1304465812.7720001
sS'lines'
p86
I28
sS'chars'
p87
I637
ssS'peavey'
p88
(dp89
S'action'
p90
S'joining #internet'
p91
sS'secs'
p92
F1316188444.0039999
sS'lines'
p93
I803
sS'chars'
p94
I22957
ssS'redct'
p95
(dp96
S'action'
p97
S'quitting with: Quit: redct'
p98
sS'secs'
p99
F1312698373.6400001
sS'lines'
p100
I21
sS'chars'
p101
I513
ssS'maas'
p102
(dp103
g52
S'quitting with: Quit: Light travels faster then sound, which is why some people appear bright, until you hear them speak'
p104
sg54
F1299052755.01
sg55
I152
sg56
I5703
ssS'mib_zq75ou'
p105
(dp106
g59
S'quitting with: Quit: http://www.mibbit.com ajax IRC Client'
p107
sg61
F1312760099.161
sg62
I20
sg63
I278
ssS'atreus_'
p108
(dp109
S'action'
p110
S'joining #boats'
p111
sS'secs'
p112
F1315831903.0539999
sS'lines'
p113
I123
sS'chars'
p114
I3412
ssS'w00t'
p115
(dp116
S'action'
p117
S'speaking in #internet'
p118
sS'secs'
p119
F1315748307.6619999
sS'lines'
p120
I97
sS'chars'
p121
I3234
ssS'samsleep'
p122
(dp123
g11
S'changing nick to SamSmart'
p124
sg13
F1314030726.3269999
sg14
I18
sg15
I336
ssS'mirrepp'
p125
(dp126
g32
S'quitting with: Quit: MirrePP'
p127
sg34
F1316200682.5829999
sg35
I968
sg36
I28435
ssS'sann'
p128
(dp129
g52
S'changing nick to sannse'
p130
sg54
F1316222446.4679999
sg55
I95
sg56
I2494
ssS'kai__'
p131
(dp132
g11
S'quitting with: Connection reset by peer'
p133
sg13
F1307918894.9849999
sg14
I203
sg15
I5446
ssS'minion'
p134
(dp135
g11
S'changing nick to Adward'
p136
sg13
F1310934462.3010001
sg14
I58
sg15
I1606
ssS'zeoinx'
p137
(dp138
S'action'
p139
S'quitting with: Quit: Leaving'
p140
sS'secs'
p141
F1312944581
sS'lines'
p142
I13
sS'chars'
p143
I773
ssS'john_234'
p144
(dp145
S'action'
p146
S'joining #devart'
p147
sS'secs'
p148
F1316393329.5899999
sS'lines'
p149
I69
sS'chars'
p150
I1156
ssS'zephyr|dev'
p151
(dp152
g11
S'changing nick to Zephyr'
p153
sg13
F1295242705.737
sg14
I11
sg15
I443
ssS'sithis'
p154
(dp155
S'action'
p156
S'quitting with: Ping timeout: 121 seconds'
p157
sS'secs'
p158
F1310713714.553
sS'lines'
p159
I60
sS'chars'
p160
I2814
ssS'tolwin'
p161
(dp162
g42
S'quitting with: Quit: Leaving'
p163
sg44
F1302243944.677
sg45
I17
sg46
I1119
ssS'joannac'
p164
(dp165
S'action'
p166
S'joining #boats'
p167
sS'secs'
p168
F1315833664.9200001
sS'lines'
p169
I760
sS'chars'
p170
I14087
ssS'des|work'
p171
(dp172
g146
S'quitting with: Quit: The computer fell asleep'
p173
sg148
F1314125030.0179999
sg149
I14
sg150
I239
ssS'calcium'
p174
(dp175
g42
S'quitting with: Client closed the connection'
p176
sg44
F1302489359.8239999
sg45
I11
sg46
I236
ssS'lennon'
p177
(dp178
g32
S'quitting with: Client exited'
p179
sg34
F1316375929.902
sg35
I40
sg36
I1497
ssS'sannn'
p180
(dp181
g97
S'quitting with: Quit: zzzzzzzzzzzzzzzzzzzzzzzz'
p182
sg99
F1312606145.573
sg100
I15
sg101
I512
ssS'gaycarrot'
p183
(dp184
g4
S'changing nick to StraightCucumber'
p185
sg6
F1303262288.832
sg7
I74
sg8
I3510
ssS'chibimoogle'
p186
(dp187
g32
S'speaking in #TRSpam'
p188
sg34
F1316380710.714
sg35
I344
sg36
I13066
ssS'pasko\\eve'
p189
(dp190
S'action'
p191
S'quitting with: Quit: http://www.mibbit.com ajax IRC Client'
p192
sS'secs'
p193
F1304208468.4100001
sS'lines'
p194
I67
sS'chars'
p195
I1786
ssS'nevet'
p196
(dp197
S'action'
p198
S'quitting with: Quit: '
p199
sS'secs'
p200
F1301779243.1340001
sS'lines'
p201
I31
sS'chars'
p202
I1507
ssS'des|afk'
p203
(dp204
S'action'
p205
S'changing nick to Desdemona'
p206
sS'secs'
p207
F1313639337.5209999
sS'lines'
p208
I92
sS'chars'
p209
I2141
ssS'legoless'
p210
(dp211
S'action'
p212
S'quitting with: Client exited'
p213
sS'secs'
p214
F1315952986.5139999
sS'lines'
p215
I26
sS'chars'
p216
I1271
ssS'pyrogun'
p217
(dp218
g11
S'changing nick to Sithis'
p219
sg13
F1298953776.6170001
sg14
I123
sg15
I6427
ssS'k'
(dp220
g52
S'quitting with: Quit: Do fish get thirsty?'
p221
sg54
F1296085821.6340001
sg55
I23
sg56
I580
ssS'atry|test'
p222
(dp223
g110
S'changing nick to Atry_|away'
p224
sg112
F1298920040.118
sg113
I21
sg114
I260
ssS'gl'
p225
(dp226
S'action'
p227
S'joining #Aetherius'
p228
sS'secs'
p229
F1298976142.523
sS'lines'
p230
I22
sS'chars'
p231
I816
ssS'sniper430'
p232
(dp233
g11
S'joining #Equilibrium'
p234
sg13
F1316379785.8069999
sg14
I115
sg15
I3033
ssS'grandmarquis'
p235
(dp236
S'action'
p237
S'joining #necrolounge'
p238
sS'secs'
p239
F1316400628.016
sS'lines'
p240
I208
sS'chars'
p241
I8660
ssS'chaos95_'
p242
(dp243
S'action'
p244
S'quitting with: Quit: http://www.mibbit.com ajax IRC Client'
p245
sS'secs'
p246
F1305530490.8269999
sS'lines'
p247
I15
sS'chars'
p248
I460
ssS'arvisrend|codingtheory'
p249
(dp250
S'action'
p251
S'changing nick to arvisrend'
p252
sS'secs'
p253
F1303941575.1589999
sS'lines'
p254
I11
sS'chars'
p255
I168
ssS'wigbot'
p256
(dp257
g32
S'speaking in #necrolounge'
p258
sg34
F1316393481.1800001
sg35
I1262
sg36
I57372
ssS'hisdem_'
p259
(dp260
g76
S'quitting with: Remote host closed the connection'
p261
sg78
F1302566482.7809999
sg79
I15
sg80
I1120
ssS'medved'
p262
(dp263
g52
S'quitting with: Quit: http://www.mibbit.com ajax IRC Client'
p264
sg54
F1297639265.918
sg55
I135
sg56
I6421
ssS'kindari|work'
p265
(dp266
g32
S'changing nick to k'
p267
sg34
F1295985236.902
sg35
I92
sg36
I3325
ssS'spooks'
p268
(dp269
S'action'
p270
S'joining #boats'
p271
sS'secs'
p272
F1313692975.707
sS'lines'
p273
I2516
sS'chars'
p274
I67314
ssS'arvisrend'
p275
(dp276
S'action'
p277
S'changing nick to arvisrend|afk'
p278
sS'secs'
p279
F1311630031.1300001
sS'lines'
p280
I182
sS'chars'
p281
I6069
ssS'zrvera'
p282
(dp283
S'action'
p284
S'joining #devart'
p285
sS'secs'
p286
F1316292785.8099999
sS'lines'
p287
I116
sS'chars'
p288
I4483
ssS'w00t_'
p289
(dp290
S'action'
p291
S'speaking in #internet'
p292
sS'secs'
p293
F1313138539.0929999
sS'lines'
p294
I15
sS'chars'
p295
I536
ssS'paprikachu'
p296
(dp297
S'action'
p298
S'changing nick to Pogs'
p299
sS'secs'
p300
F1316019652.3369999
sS'lines'
p301
I178
sS'chars'
p302
I4383
ssS'tooly'
p303
(dp304
g11
S'quitting with: Ping timeout'
p305
sg13
F1316335868.9330001
sg14
I36
sg15
I869
ssS'duck'
p306
(dp307
g205
S'joining #internet'
p308
sg207
F1305850324.1259999
sg208
I35
sg209
I755
ssS'lizzy'
p309
(dp310
g66
S'quitting with: Quit: ooOOoo, what does this button do?!'
p311
sg68
F1316369308.8670001
sg69
I274
sg70
I4415
ssS'nin10doh'
p312
(dp313
S'action'
p314
S'quitting with: Quit: http://www.mibbit.com ajax IRC Client'
p315
sS'secs'
p316
F1297723592.487
sS'lines'
p317
I13
sS'chars'
p318
I479
ssS'michaleson'
p319
(dp320
g277
S'quitting with: Quit: http://www.mibbit.com ajax IRC Client'
p321
sg279
F1307462880.177
sg280
I35
sg281
I847
ssS'shadowdaemon'
p322
(dp323
g270
S'joining #boats'
p324
sg272
F1315833664.918
sg273
I25
sg274
I730
ssS'josh|lionaire'
p325
(dp326
g166
S'quitting with: Client exited'
p327
sg168
F1316378634.7579999
sg169
I19
sg170
I299
ssS'godcheese'
p328
(dp329
S'action'
p330
S'joining #necrolounge'
p331
sS'secs'
p332
F1316362349.467
sS'lines'
p333
I472
sS'chars'
p334
I24999
ssS'nazgjunk'
p335
(dp336
g11
S'joining #bots'
p337
sg13
F1315545088.668
sg14
I21
sg15
I762
ssS'fallout|modding'
p338
(dp339
S'action'
p340
S'changing nick to Anthony'
p341
sS'secs'
p342
F1303717524.2460001
sS'lines'
p343
I14
sS'chars'
p344
I501
ssS'blackbeltsaru'
p345
(dp346
g32
S'joining #TRSpam'
p347
sg34
F1316386329.533
sg35
I202
sg36
I7370
ssS'asiekierka'
p348
(dp349
g42
S'quitting with: Ping timeout'
p350
sg44
F1302298236.951
sg45
I27
sg46
I510
ssS'adward'
p351
(dp352
g32
S'quitting with: Quit: Leaving'
p353
sg34
F1316385007.2739999
sg35
I5862
sg36
I100201
ssS'penis'
p354
(dp355
g340
S'quitting with: Quit: http://www.mibbit.com ajax IRC Client'
p356
sg342
F1313022417.885
sg343
I24
sg344
I538
ssS'lpzm'
p357
(dp358
g314
S'quitting with: Read error: Connection reset by peer'
p359
sg316
F1313070926.6129999
sg317
I85
sg318
I2893
ssS'mf'
p360
(dp361
g139
S'quitting with: Quit: KVIrc Insomnia 4.0.0, revision: 3900, sources date: 20100125, built on: 2011-03-15 15:32:03 UTC http://www.kvirc.net/'
p362
sg141
F1313185113.9159999
sg142
I33
sg143
I623
ssS'kyte2'
p363
(dp364
g32
S'quitting with: Ping timeout: 252 seconds'
p365
sg34
F1316328402.8570001
sg35
I36
sg36
I2070
ssS'krusty|away'
p366
(dp367
g25
S'changing nick to Krusty'
p368
sg27
F1315765579.2539999
sg28
I42
sg29
I1728
ssS'atry|pidgin'
p369
(dp370
g42
S'parting #StageCrew'
p371
sg44
F1302558353.6659999
sg45
I33
sg46
I913
ssS'des'
p372
(dp373
g97
S'quitting with: Quit: http://www.mibbit.com ajax IRC Client'
p374
sg99
F1312351408.72
sg100
I24
sg101
I701
ssS'mk'
p375
(dp376
g298
S'joining #internet'
p377
sg300
F1316247843.9219999
sg301
I1465
sg302
I37069
ssS'cat'
p378
(dp379
g32
S'quitting with: Client closed the connection'
p380
sg34
F1316390852.0320001
sg35
I535
sg36
I15316
ssS'corevette789'
p381
(dp382
g32
S'speaking in #necrolounge'
p383
sg34
F1316393529.4360001
sg35
I1542
sg36
I46521
ssS'foksieyl'
p384
(dp385
S'action'
p386
S'joining #uespwiki'
p387
sS'secs'
p388
F1316372850.108
sS'lines'
p389
I34
sS'chars'
p390
I1275
ssS'ap214'
p391
(dp392
g386
S'quitting with: Ping timeout: 264 seconds'
p393
sg388
F1309620313.187
sg389
I68
sg390
I1315
ssS'emsenn_'
p394
(dp395
S'action'
p396
S'quitting with: Quit: Lost terminal'
p397
sS'secs'
p398
F1311740751.25
sS'lines'
p399
I391
sS'chars'
p400
I11682
ssS'spb'
p401
(dp402
g110
S'joining #internet'
p403
sg112
F1315599511.359
sg113
I51
sg114
I2084
ssS'krusty|movie'
p404
(dp405
g166
S'quitting with: Client exited'
p406
sg168
F1315006021.9990001
sg169
I41
sg170
I1714
ssS'ryn'
p407
(dp408
g32
S'quitting with: Quit: When in doubt, use C4.'
p409
sg34
F1316118913.6800001
sg35
I2420
sg36
I38885
ssS'mapd'
p410
(dp411
S'action'
p412
S'quitting with: Quit: '
p413
sS'secs'
p414
F1307749150.6010001
sS'lines'
p415
I99
sS'chars'
p416
I1569
ssS'atreus'
p417
(dp418
S'action'
p419
S'speaking in #stagecrew'
p420
sS'secs'
p421
F1316403630.9330001
sS'lines'
p422
I13667
sS'chars'
p423
I343752
ssS'geekthras'
p424
(dp425
g11
S'quitting with: Ping timeout'
p426
sg13
F1313827686.4949999
sg14
I50
sg15
I1310
ssS'theprophetgaamer'
p427
(dp428
S'action'
p429
S'parting #uespwiki'
p430
sS'secs'
p431
F1316295799.927
sS'lines'
p432
I25
sS'chars'
p433
I1328
ssS'pogs'
p434
(dp435
g97
S'speaking in #internet'
p436
sg99
F1316195113.431
sg100
I210
sg101
I7458
ssS'aminor'
p437
(dp438
g97
S'quitting with: Quit: '
p439
sg99
F1312060436.993
sg100
I50
sg101
I2046
ssS'lan'
p440
(dp441
g52
S'changing nick to DrWily'
p442
sg54
F1295834433.9389999
sg55
I12
sg56
I116
ssS'optimisticcynic'
p443
(dp444
g396
S'joining #boats'
p445
sg398
F1315833664.9189999
sg399
I1979
sg400
I71088
ssS'tea_girl'
p446
(dp447
g330
S'quitting with: G-Lined'
p448
sg332
F1302800293.7720001
sg333
I14
sg334
I476
ssS'a'
(dp449
g52
S'changing nick to Lupin'
p450
sg54
F1302957178.8529999
sg55
I28
sg56
I471
ssS'hydronic'
p451
(dp452
g284
S'quitting'
p453
sg286
F1315584996.073
sg287
I147
sg288
I2542
ssS'mjf'
p454
(dp455
S'action'
p456
S'quitting with: Quit: Easy as 3.14159265358979323846... '
p457
sS'secs'
p458
F1316386725.908
sS'lines'
p459
I9350
sS'chars'
p460
I214645
ssS'eh-live'
p461
(dp462
g25
S'quitting with: Connection reset by peer'
p463
sg27
F1305283657.6659999
sg28
I12
sg29
I847
ssS'_0x44'
p464
(dp465
S'action'
p466
S'speaking in #boats'
p467
sS'secs'
p468
F1315514879.6730001
sS'lines'
p469
I255
sS'chars'
p470
I11003
ssS'yppup'
p471
(dp472
g284
S'quitting with: Quit: http://www.mibbit.com ajax IRC Client'
p473
sg286
F1313558567.125
sg287
I61
sg288
I806
ssS'emsenn0'
p474
(dp475
g110
S'parting #boats'
p476
sg112
F1298863073.7160001
sg113
I68
sg114
I1881
ssS'jack'
p477
(dp478
g412
S'quitting with: Quit: disco'
p479
sg414
F1307768285.905
sg415
I15
sg416
I483
ssS'blanketspace'
p480
(dp481
g340
S'quitting with: Connection reset by peer'
p482
sg342
F1316168496.4449999
sg343
I1187
sg344
I35083
ssS'rynryn'
p483
(dp484
g90
S'quitting with: Client Quit'
p485
sg92
F1315514237.7320001
sg93
I438
sg94
I6609
ssS'andkore'
p486
(dp487
g340
S'quitting with: Quit: Leaving'
p488
sg342
F1312248923.822
sg343
I13
sg344
I377
ssS'_lemon_'
p489
(dp490
g32
S'quitting with: Quit: Konversation terminated!'
p491
sg34
F1307918021.026
sg35
I27
sg36
I996
ssS'ramen'
p492
(dp493
S'action'
p494
S'quitting with: Client closed the connection'
p495
sS'secs'
p496
F1313869914.809
sS'lines'
p497
I17
sS'chars'
p498
I1275
ssS'maid'
p499
(dp500
g11
S'speaking in #necrolounge'
p501
sg13
F1316394985.937
sg14
I568
sg15
I24763
ssS'tyler'
p502
(dp503
g32
S'quitting with: Quit: Tyler'
p504
sg34
F1302419478.569
sg35
I503
sg36
I11044
ssS'titsos'
p505
(dp506
g32
S'quitting with: Client closed the connection'
p507
sg34
F1316379456.8699999
sg35
I565
sg36
I14779
ssS'abkarch'
p508
(dp509
g146
S'quitting with: Client exited'
p510
sg148
F1309887890.411
sg149
I30
sg150
I1644
ssS'kiwizoom'
p511
(dp512
g166
S'quitting with: Read error: Connection reset by peer'
p513
sg168
F1295073304.4660001
sg169
I33
sg170
I945
ssS'lukish'
p514
(dp515
g166
S'changing nick to Guest86417'
p516
sg168
F1316121214.464
sg169
I867
sg170
I31898
ssS'fallout10mm'
p517
(dp518
g11
S'quitting with: Quit: Explosive decomprestion? Whats that....Aaaahhh!'
p519
sg13
F1316196321.4070001
sg14
I4487
sg15
I159752
ssS'tf|desktop|afk'
p520
(dp521
g284
S'changing nick to TF|Sleep'
p522
sg286
F1313661202.0220001
sg287
I36
sg288
I1117
ssS'lindaa'
p523
(dp524
g32
S'changing nick from Guest52763'
p525
sg34
F1316399385.1760001
sg35
I416
sg36
I4331
ssS'ambeco'
p526
(dp527
S'action'
p528
S'quitting with: Quit: http://www.mibbit.com ajax IRC Client'
p529
sS'secs'
p530
F1315003830.089
sS'lines'
p531
I14
sS'chars'
p532
I666
ssS'alex'
p533
(dp534
g340
S'changing nick to Lupin'
p535
sg342
F1303751188.7590001
sg343
I99
sg344
I1757
ssS'l'
(dp536
g52
S'changing nick to Lupin'
p537
sg54
F1296064514.793
sg55
I18
sg56
I276
ssS'fallout|nv'
p538
(dp539
g76
S'changing nick to Fallout|Shower'
p540
sg78
F1301786350.122
sg79
I33
sg80
I946
ssS'ploosk'
p541
(dp542
g396
S'speaking in #boats'
p543
sg398
F1312851549.5810001
sg399
I612
sg400
I17571
ssS'moneybags01'
p544
(dp545
g110
S'quitting with: Ping timeout: 121 seconds'
p546
sg112
F1298789310.027
sg113
I44
sg114
I803
ssS'|'
(dp547
g90
S'joining #internet'
p548
sg92
F1306385177.2320001
sg93
I245
sg94
I5593
ssS'alias\\'
p549
(dp550
g52
S'speaking in #boats'
p551
sg54
F1295746388.197
sg55
I21
sg56
I653
ssS'nachtruhe'
p552
(dp553
g25
S'quitting with: Client Quit'
p554
sg27
F1305250416.1559999
sg28
I15
sg29
I264
ssS'w13'
p555
(dp556
g494
S'quitting with: Client closed the connection'
p557
sg496
F1314114606.73
sg497
I25
sg498
I1163
ssS'ryn238_'
p558
(dp559
g146
S'changing nick to RynRyn'
p560
sg148
F1313108269.0739999
sg149
I14
sg150
I176
ssS'shadowfax'
p561
(dp562
g32
S'joining #boats'
p563
sg34
F1299026168.5810001
sg35
I125
sg36
I4537
ssS'partricke'
p564
(dp565
S'action'
p566
S'quitting with: Ping timeout'
p567
sS'secs'
p568
F1314438699.707
sS'lines'
p569
I107
sS'chars'
p570
I2841
ssS'nullpointerbot'
p571
(dp572
g212
S'quitting with: Ping timeout'
p573
sg214
F1305079957.783
sg215
I51
sg216
I445
ssS'shaddow'
p574
(dp575
g212
S'quitting with: Quit: http://www.mibbit.com ajax IRC Client'
p576
sg214
F1304851971.6730001
sg215
I164
sg216
I1940
ssS'asiqirl'
p577
(dp578
S'action'
p579
S'quitting with: Connection reset by peer'
p580
sS'secs'
p581
F1303317079.5250001
sS'lines'
p582
I12
sS'chars'
p583
I348
ssS'kai___'
p584
(dp585
S'action'
p586
S'changing nick to ChairWool'
p587
sS'secs'
p588
F1303582049.2809999
sS'lines'
p589
I11
sS'chars'
p590
I328
ssS'eugenekaway'
p591
(dp592
g191
S'changing nick to EugeneKay'
p593
sg193
F1316358489.974
sg194
I28
sg195
I745
ssS'god'
p594
(dp595
g579
S'quitting with: Quit: leaving'
p596
sg581
F1304230343.388
sg582
I89
sg583
I1989
ssS'america_fuck_yeah'
p597
(dp598
g83
S'changing nick to Herp|pasko|Derp'
p599
sg85
F1304382890.404
sg86
I47
sg87
I1193
ssS'jercos_'
p600
(dp601
g244
S'quitting with: Quit: Whee'
p602
sg246
F1312995154.0039999
sg247
I40
sg248
I1121
ssS'adward|away'
p603
(dp604
g11
S'changing nick to Adward'
p605
sg13
F1314474775.0350001
sg14
I130
sg15
I1779
ssS'kinglaptop'
p606
(dp607
g117
S'quitting with: Quit: Leaving'
p608
sg119
F1299788674.4530001
sg120
I18
sg121
I481
ssS'cuddlefish'
p609
(dp610
g42
S'quitting with: Quit: Leaving'
p611
sg44
F1302321512.1300001
sg45
I23
sg46
I572
ssS'alonzotg'
p612
(dp613
S'action'
p614
S'parting #uespwiki'
p615
sS'secs'
p616
F1312256344.6300001
sS'lines'
p617
I231
sS'chars'
p618
I13545
ssS'teksura'
p619
(dp620
g32
S'speaking in #necrolounge'
p621
sg34
F1315862127.4519999
sg35
I482
sg36
I25436
ssS'not_kindari'
p622
(dp623
g528
S'changing nick to Kindari'
p624
sg530
F1307383336.763
sg531
I14
sg532
I836
ssS'blanketsincognito'
p625
(dp626
g25
S'changing nick to Blanketspace'
p627
sg27
F1305253318.0650001
sg28
I52
sg29
I2602
ssS'senor'
p628
(dp629
g314
S'quitting with: Quit: Leaving'
p630
sg316
F1297655032.721
sg317
I15
sg318
I482
ssS'___'
p631
(dp632
g139
S'changing nick to Foo'
p633
sg141
F1312957733.8859999
sg142
I12
sg143
I346
ssS'efreak'
p634
(dp635
g32
S'joining #Equilibrium'
p636
sg34
F1315920423.3959999
sg35
I17
sg36
I426
ssS'you|work'
p637
(dp638
g291
S'quitting with: Ping timeout'
p639
sg293
F1312220519.8380001
sg294
I106
sg295
I5159
ssS'revenant'
p640
(dp641
g586
S'joining #necrolounge'
p642
sg588
F1316385272.681
sg589
I234
sg590
I6899
ssS'dogfort'
p643
(dp644
g52
S'changing nick to pasko'
p645
sg54
F1304994592.49
sg55
I649
sg56
I21859
ssS'chairwool'
p646
(dp647
g330
S'quitting with: Quit: L O L'
p648
sg332
F1311557657.05
sg333
I1296
sg334
I29310
ssS'roddie'
p649
(dp650
g32
S'parting #uespwiki'
p651
sg34
F1302362883.112
sg35
I49
sg36
I1823
ssS'xul'
p652
(dp653
S'action'
p654
S'changing nick from xul_gone'
p655
sS'secs'
p656
F1315022975.214
sS'lines'
p657
I24
sS'chars'
p658
I397
ssS'willy_bum'
p659
(dp660
g340
S'quitting with: Quit: http://www.mibbit.com ajax IRC Client'
p661
sg342
F1303826284.451
sg343
I29
sg344
I710
ssS'jesus'
p662
(dp663
g340
S'quitting with: Quit: leaving'
p664
sg342
F1304227650.4219999
sg343
I53
sg344
I1100
ssS'rpeh_'
p665
(dp666
S'action'
p667
S'changing nick to rpeh'
p668
sS'secs'
p669
F1302479681.8900001
sS'lines'
p670
I13
sS'chars'
p671
I318
ssS'pasko|eve'
p672
(dp673
g251
S'getting kicked from #necrolounge by EugeneKay for: failure'
p674
sg253
F1304222230.303
sg254
I155
sg255
I4056
ssS'foksieloy'
p675
(dp676
g586
S'quitting with: Ping timeout: 121 seconds'
p677
sg588
F1316372997.1329999
sg589
I55
sg590
I2100
ssS'watuhboy'
p678
(dp679
g156
S'quitting with: Quit: The early bird may get the worm, but the second mouse gets the cheese'
p680
sg158
F1312633976.678
sg159
I27
sg160
I553
ssS'robinhood70'
p681
(dp682
g277
S'parting #uespwiki'
p683
sg279
F1302320316.5969999
sg280
I77
sg281
I5471
ssS'pippijn'
p684
(dp685
g117
S'speaking in #internet'
p686
sg119
F1316318538.7
sg120
I175
sg121
I4145
ssS'tf|out'
p687
(dp688
g11
S'quitting with: Ping timeout: 121 seconds'
p689
sg13
F1316330524.533
sg14
I36
sg15
I1521
ssS'the_holy_ghost'
p690
(dp691
g340
S'changing nick to hannerz'
p692
sg342
F1304228586.5910001
sg343
I73
sg344
I2166
ssS'hawke'
p693
(dp694
g90
S'parting #bots'
p695
sg92
F1314933148.8800001
sg93
I500
sg94
I20537
ssS'kuro'
p696
(dp697
g11
S'parting #Equilibrium'
p698
sg13
F1311462985.408
sg14
I40
sg15
I958
ssS'shawn'
p699
(dp700
g117
S'speaking in #internet'
p701
sg119
F1316390839.329
sg120
I752
sg121
I18459
ssS'tf|'
p702
(dp703
g32
S'speaking in #TRSpam'
p704
sg34
F1316395488.181
sg35
I1105
sg36
I35143
ssS'des|xfiles'
p705
(dp706
g146
S'changing nick to Desdemona'
p707
sg148
F1313556980.6960001
sg149
I28
sg150
I493
ssS'ryn238'
p708
(dp709
g156
S'quitting with: Quit: Beware of programmers who carry screwdrivers.'
p710
sg158
F1313847646.4619999
sg159
I306
sg160
I4995
ssS'asbrandt'
p711
(dp712
g284
S'speaking in #necrolounge'
p713
sg286
F1316396288.0250001
sg287
I38
sg288
I2904
ssS'artemios'
p714
(dp715
g32
S'quitting with: Read error: Connection reset by peer'
p716
sg34
F1316381915.1300001
sg35
I876
sg36
I19757
ssS'slack'
p717
(dp718
g32
S'quitting with: Ping timeout'
p719
sg34
F1311930592.3870001
sg35
I101
sg36
I3487
ssS'emsenn'
p720
(dp721
g18
S'joining #boats'
p722
sg20
F1315495609.0190001
sg21
I3423
sg22
I112351
ssS'nameless1'
p723
(dp724
g244
S'quitting with: Quit: leaving'
p725
sg246
F1314486495.6040001
sg247
I13
sg248
I326
ssS'blanketspace_'
p726
(dp727
g340
S'changing nick to Blanketspace'
p728
sg342
F1315102504.322
sg343
I75
sg344
I1942
ssS'r'
(dp729
g52
S'changing nick to manicflamingo'
p730
sg54
F1296008007.839
sg55
I14
sg56
I349
ssS'johhan'
p731
(dp732
g11
S'quitting with: Quit: ChatZilla 0.9.87 [Firefox 5.0/20110615151330]'
p733
sg13
F1312661032.9189999
sg14
I2075
sg15
I55101
ssS'kinz'
p734
(dp735
g566
S'changing nick to SynDat'
p736
sg568
F1314489007.0439999
sg569
I24
sg570
I776
ssS'auroranova'
p737
(dp738
g340
S'quitting with: Connection reset by peer'
p739
sg342
F1303768651.3469999
sg343
I326
sg344
I6422
ssS'manicflamingo'
p740
(dp741
g52
S'changing nick to Ryn'
p742
sg54
F1296083084.911
sg55
I98
sg56
I1465
ssS'loki'
p743
(dp744
g32
S'joining #uespwiki'
p745
sg34
F1316381211.0220001
sg35
I78
sg36
I2719
ssS'captain_tf|planet'
p746
(dp747
g25
S'quitting with: Ping timeout: 121 seconds'
p748
sg27
F1305184489.4000001
sg28
I23
sg29
I542
ssS'jercos'
p749
(dp750
g32
S'speaking in #boats'
p751
sg34
F1316395888.809
sg35
I6349
sg36
I235980
ssS'holy_ghost'
p752
(dp753
g340
S'changing nick to The_Holy_Ghost'
p754
sg342
F1303686756.3959999
sg343
I22
sg344
I480
ssS'tf|lab'
p755
(dp756
g11
S'quitting with: Quit: http://www.mibbit.com ajax IRC Client'
p757
sg13
F1298960035.4749999
sg14
I51
sg15
I2025
ssS'self'
p758
(dp759
g32
S'quitting with: Quit: Self'
p760
sg34
F1313038211.8699999
sg35
I236
sg36
I8964
ssS'raphidae'
p761
(dp762
g52
S'speaking in #devart'
p763
sg54
F1301761161.783
sg55
I23
sg56
I637
ssS'zamiel'
p764
(dp765
g52
S'quitting with: Disconnected by services'
p766
sg54
F1312940058.3180001
sg55
I56
sg56
I3589
ssS'sannse_'
p767
(dp768
g83
S'changing nick to Guest97401'
p769
sg85
F1315797566.7460001
sg86
I50
sg87
I1841
ssS'[o][o]'
p770
(dp771
g156
S'changing nick to EugeneKay'
p772
sg158
F1304472668.9170001
sg159
I47
sg160
I1812
ssS'kyte'
p773
(dp774
g32
S'quitting with: Ping timeout: 258 seconds'
p775
sg34
F1316397272.3929999
sg35
I4185
sg36
I176407
ssS'reverend789'
p776
(dp777
g52
S'quitting with: Client Quit'
p778
sg54
F1316351812.7609999
sg55
I82
sg56
I2265
ssS'hannerz'
p779
(dp780
g314
S'speaking in #boats'
p781
sg316
F1316391091.6919999
sg317
I11537
sg318
I389669
ssS'zucchini'
p782
(dp783
g494
S'quitting with: Quit: http://www.mibbit.com ajax IRC Client'
p784
sg496
F1313779483.059
sg497
I16
sg498
I396
ssS'sannse-away'
p785
(dp786
g614
S'quitting with: Ping timeout: 240 seconds'
p787
sg616
F1299472403.1559999
sg617
I27
sg618
I1237
ssS'kaj'
p788
(dp789
g212
S'quitting with: Connection reset by peer'
p790
sg214
F1305090410.329
sg215
I11
sg216
I149
ssS'kai'
p791
(dp792
g466
S'joining #boats'
p793
sg468
F1315833665.1830001
sg469
I586
sg470
I15292
ssS'kat'
p794
(dp795
g227
S'quitting with: Ping timeout'
p796
sg229
F1312306050.6989999
sg230
I277
sg231
I8725
ssS'gregoriev'
p797
(dp798
g32
S'quitting with: Ping timeout'
p799
sg34
F1314504724.7479999
sg35
I19
sg36
I440
ssS'mistform'
p800
(dp801
g396
S'quitting with: Quit: '
p802
sg398
F1311578677.7420001
sg399
I54
sg400
I1660
ssS'john_cusack'
p803
(dp804
g456
S'speaking in #necrolounge'
p805
sg458
F1299484436.7260001
sg459
I153
sg460
I4243
ssS'tsutomu'
p806
(dp807
g11
S'quitting with: Client exited'
p808
sg13
F1309885376.6570001
sg14
I134
sg15
I4301
ssS'freelancer'
p809
(dp810
g166
S'speaking in #boats'
p811
sg168
F1316157209.0239999
sg169
I3113
sg170
I82728
ssS'artemis'
p812
(dp813
g166
S'joining #boats'
p814
sg168
F1315833665.184
sg169
I620
sg170
I29918
ssS'sigma'
p815
(dp816
g90
S'joining #bots'
p817
sg92
F1312708118.3469999
sg93
I38
sg94
I647
ssS'doctor_rockso'
p818
(dp819
S'action'
p820
S'changing nick to pasko'
p821
sS'secs'
p822
F1304727932.688
sS'lines'
p823
I14
sS'chars'
p824
I574
ssS'desdenoma'
p825
(dp826
g83
S'changing nick to desdemona'
p827
sg85
F1313967265.6849999
sg86
I11
sg87
I160
ssS'eugenephone'
p828
(dp829
g97
S'changing nick to EugeneKaway'
p830
sg99
F1314980951.082
sg100
I17
sg101
I374
ssS'jonanin'
p831
(dp832
g32
S'quitting with: Ping timeout'
p833
sg34
F1311467789.9330001
sg35
I77
sg36
I1379
ssS'troy'
p834
(dp835
S'action'
p836
S'quitting with: Quit: Leaving'
p837
sS'secs'
p838
F1311724443.075
sS'lines'
p839
I117
sS'chars'
p840
I5714
ssS'perfekt'
p841
(dp842
g314
S'quitting with: Quit: Pull the pin and count to what?'
p843
sg316
F1297295708.4419999
sg317
I58
sg318
I1671
ssS'dragonite'
p844
(dp845
g146
S'quitting with: Client exited'
p846
sg148
F1309914657.562
sg149
I19
sg150
I776
ssS'arvisrend|thesis'
p847
(dp848
g76
S'quitting with: Ping timeout: 121 seconds'
p849
sg78
F1304891912.763
sg79
I31
sg80
I1029
ssS'ijiero'
p850
(dp851
g386
S'parting #uespwiki'
p852
sg388
F1307303237.993
sg389
I61
sg390
I2886
ssS'slackfa'
p853
(dp854
g314
S'quitting with: Ping timeout: 260 seconds'
p855
sg316
F1311930644.753
sg317
I192
sg318
I5294
ssS'ensemm'
p856
(dp857
g97
S'changing nick to emsenn'
p858
sg99
F1312473424.1919999
sg100
I162
sg101
I5389
ssS'chalic'
p859
(dp860
g284
S'quitting with: Quit: - nbs-irc 2.39 - www\x0f.nbs-irc\x0f.net -'
p861
sg286
F1313878681.3050001
sg287
I40
sg288
I1159
ssS'pasko'
p862
(dp863
g11
S'speaking in #necrolounge'
p864
sg13
F1316210788.6700001
sg14
I3233
sg15
I100791
ssS'db9'
p865
(dp866
S'action'
p867
S'speaking in #boats'
p868
sS'secs'
p869
F1307854661.493
sS'lines'
p870
I207
sS'chars'
p871
I6601
ssS'namelezz'
p872
(dp873
g466
S'getting kicked from #boats by nameless for: THERE CAN ONLY BE ONE'
p874
sg468
F1311057335.0710001
sg469
I20
sg470
I503
ssS'fallout'
p875
(dp876
g83
S'changing nick to Fallout|Deadisland'
p877
sg85
F1315540803.845
sg86
I174
sg87
I6377
ssS'dlarsh|work'
p878
(dp879
g412
S'changing nick to Dlarsh'
p880
sg414
F1307648349.0810001
sg415
I28
sg416
I1492
ssS'dw'
p881
(dp882
S'action'
p883
S'quitting with: Quit: '
p884
sS'secs'
p885
F1307750973.507
sS'lines'
p886
I70
sS'chars'
p887
I1316
ssS'bofh'
p888
(dp889
g32
S'joining #boats'
p890
sg34
F1315833665.1819999
sg35
I1208
sg36
I60636
ssS'sadface'
p891
(dp892
g52
S'changing nick to dogfort'
p893
sg54
F1295828092.698
sg55
I16
sg56
I223
ssS'brik'
p894
(dp895
g83
S'joining #internet'
p896
sg85
F1316363794.5
sg86
I16
sg87
I509
ssS'skah|terraria'
p897
(dp898
S'action'
p899
S'changing nick to Skah'
p900
sS'secs'
p901
F1305774171.2820001
sS'lines'
p902
I16
sS'chars'
p903
I458
ssS'sarikitty'
p904
(dp905
g32
S'quitting with: Client closed the connection'
p906
sg34
F1316335051.421
sg35
I50
sg36
I2287
ssS'scotticus'
p907
(dp908
g340
S'changing nick to ADK'
p909
sg342
F1303723571.454
sg343
I26
sg344
I363
ssS'entomo'
p910
(dp911
g237
S'joining #necrolounge'
p912
sg239
F1316347867.1919999
sg240
I109
sg241
I5329
ssS'sigma_'
p913
(dp914
g244
S'quitting with: Quit: :wq'
p915
sg246
F1314226727.9000001
sg247
I66
sg248
I1380
ssS'lackofafokcal'
p916
(dp917
g42
S'parting #bots'
p918
sg44
F1302299808.9630001
sg45
I73
sg46
I1018
ssS'rpeh'
p919
(dp920
g32
S'quitting with: Quit: Leaving'
p921
sg34
F1315220036.7390001
sg35
I667
sg36
I33777
ssS'sanae'
p922
(dp923
g205
S'quitting with: Quit: ~ Trillian Astra - www.trillian.im ~'
p924
sg207
F1296443321.5510001
sg208
I16
sg209
I1121
ssS'ap|away'
p925
(dp926
g586
S'joining #devart'
p927
sg588
F1303837851.9860001
sg589
I37
sg590
I522
ssS'menelaus'
p928
(dp929
g314
S'quitting with: Quit: www.steve3d.co.uk - Images from a bored mind.'
p930
sg316
F1299027538.9690001
sg317
I20
sg318
I380
ssS'lu\\'
p931
(dp932
g314
S'quitting with: Quit: Leaving'
p933
sg316
F1301630566.5439999
sg317
I31
sg318
I1443
ssS'uespuser'
p934
(dp935
g32
S'quitting with: Client exited'
p936
sg34
F1316240011.3699999
sg35
I922
sg36
I31068
ssS'exxodium-'
p937
(dp938
g586
S'changing nick to Exxodium'
p939
sg588
F1315720548.6989999
sg589
I142
sg590
I5684
ssS'addward'
p940
(dp941
g166
S'quitting with: Connection reset by peer'
p942
sg168
F1315724348.9820001
sg169
I68
sg170
I966
ssS'zack'
p943
(dp944
g237
S'speaking in #boats'
p945
sg239
F1313036632.28
sg240
I82
sg241
I1884
ssS'coonhoot1'
p946
(dp947
S'action'
p948
S'quitting with: Ping timeout: 121 seconds'
p949
sS'secs'
p950
F1307600073.0309999
sS'lines'
p951
I26
sS'chars'
p952
I575
ssS'mrpink'
p953
(dp954
g59
S'quitting with: Quit: http://www.mibbit.com ajax IRC Client'
p955
sg61
F1312905325.9489999
sg62
I22
sg63
I1730
ssS'polymath'
p956
(dp957
g456
S'changing nick to Desdemona'
p958
sg458
F1300995843.24
sg459
I37
sg460
I1066
ssS'fallout|deadisland'
p959
(dp960
S'action'
p961
S'changing nick to Fallout10mm'
p962
sS'secs'
p963
F1315631468.7609999
sS'lines'
p964
I25
sS'chars'
p965
I991
ssS'anti|laptop'
p966
(dp967
g340
S'quitting with: Quit: Leaving'
p968
sg342
F1304388011.27
sg343
I42
sg344
I1149
ssS'johhaway'
p969
(dp970
g528
S'changing nick to Johhan'
p971
sg530
F1309658890.723
sg531
I11
sg532
I511
ssS'massey'
p972
(dp973
g25
S'parting #TRSpam'
p974
sg27
F1306389684.6259999
sg28
I192
sg29
I2855
ssS'we'
p975
(dp976
S'action'
p977
S'changing nick to hannerz'
p978
sS'secs'
p979
F1312696812.2249999
sS'lines'
p980
I29
sS'chars'
p981
I716
ssS'fallout|workingout'
p982
(dp983
g212
S'changing nick to Fallout10mm'
p984
sg214
F1304810835.881
sg215
I11
sg216
I99
ssS'minibill'
p985
(dp986
g18
S'speaking in #boats'
p987
sg20
F1305374683.582
sg21
I26
sg22
I1230
ssS'tyrion'
p988
(dp989
g166
S'quitting with: Quit: http://www.mibbit.com ajax IRC Client'
p990
sg168
F1316319608.1070001
sg169
I145
sg170
I2904
ssS'atry'
p991
(dp992
g314
S'quitting with: Quit: http://www.mibbit.com ajax IRC Client'
p993
sg316
F1315328337.4130001
sg317
I86
sg318
I2374
ssS'local2'
p994
(dp995
g32
S'joining #uespwiki'
p996
sg34
F1316401066.973
sg35
I83
sg36
I8493
ssS'mrsgrime'
p997
(dp998
g11
S'quitting with: Quit: '
p999
sg13
F1295320761.079
sg14
I20
sg15
I1303
ssS'emoboy64'
p1000
(dp1001
g166
S'quitting with: Quit: If you think nobody cares, try missing a few payments'
p1002
sg168
F1313104717.0610001
sg169
I907
sg170
I26659
ssS'anonytroll'
p1003
(dp1004
g11
S'quitting with: Quit: Verlassend'
p1005
sg13
F1316373129.7049999
sg14
I726
sg15
I32164
ssS'andres|busyish'
p1006
(dp1007
g277
S'changing nick to Andres'
p1008
sg279
F1297304311.0179999
sg280
I86
sg281
I3367
ssS'scamp'
p1009
(dp1010
g32
S'quitting with: Quit: GNAR'
p1011
sg34
F1316377049.1029999
sg35
I543
sg36
I10730
ssS'probablykai'
p1012
(dp1013
g97
S'changing nick to probablyasleep'
p1014
sg99
F1312620644.099
sg100
I11
sg101
I275
ssS'riddle'
p1015
(dp1016
g32
S'quitting with: Quit: '
p1017
sg34
F1315885118.4920001
sg35
I187
sg36
I6129
ssS'optimiyu'
p1018
(dp1019
g97
S'quitting with: Quit: For the golden millennium'
p1020
sg99
F1312943560.427
sg100
I54
sg101
I1862
ssS'elliot'
p1021
(dp1022
g25
S'parting #uespwiki'
p1023
sg27
F1311397604.0280001
sg28
I105
sg29
I2738
ssS'anti'
p1024
(dp1025
g32
S'quitting with: Quit: Leaving'
p1026
sg34
F1312771092.1429999
sg35
I1939
sg36
I63862
ssS'bofh|remote'
p1027
(dp1028
g90
S'speaking in #boats'
p1029
sg92
F1299984554.4519999
sg93
I11
sg94
I563
ssS'pasko|derp'
p1030
(dp1031
g42
S'quitting with: Quit: http://www.mibbit.com ajax IRC Client'
p1032
sg44
F1302460159.9590001
sg45
I18
sg46
I267
ssS'pasko|nakeds'
p1033
(dp1034
S'action'
p1035
S'changing nick to pasko'
p1036
sS'secs'
p1037
F1303365695.391
sS'lines'
p1038
I31
sS'chars'
p1039
I1114
ssS'edogy'
p1040
(dp1041
g90
S'quitting with: Quit: http://www.mibbit.com ajax IRC Client'
p1042
sg92
F1299781246.599
sg93
I12
sg94
I619
ssS'combined'
p1043
(dp1044
g166
S'quitting with: Quit: '
p1045
sg168
F1311622416.1889999
sg169
I505
sg170
I16460
ssS'priski'
p1046
(dp1047
S'action'
p1048
S'speaking in #devart'
p1049
sS'secs'
p1050
F1315988234.0220001
sS'lines'
p1051
I53
sS'chars'
p1052
I2654
ssS'f00d'
p1053
(dp1054
g166
S'quitting with: Quit: Sorry for upsetting you'
p1055
sg168
F1315974548.8770001
sg169
I11
sg170
I163
ssS'glados'
p1056
(dp1057
g251
S"quitting with: Quit: There's science to do"
p1058
sg253
F1303946001.007
sg254
I14
sg255
I464
ssS'andres'
p1059
(dp1060
g32
S'changing nick from Andres|Zzzz'
p1061
sg34
F1314246670.783
sg35
I645
sg36
I21733
ssS'nrg'
p1062
(dp1063
g836
S'quitting with: Quit: http://www.mibbit.com ajax IRC Client'
p1064
sg838
F1311201822.8269999
sg839
I14
sg840
I275
ssS'_3xp'
p1065
(dp1066
g66
S'parting #devart'
p1067
sg68
F1298714478.7820001
sg69
I15
sg70
I582
ssS'lepr'
p1068
(dp1069
g466
S'joining #boats'
p1070
sg468
F1313691529.5239999
sg469
I34
sg470
I1401
ssS'flechmen'
p1071
(dp1072
g191
S'changing nick from Flechmen_Away'
p1073
sg193
F1316395021.7939999
sg194
I55
sg195
I3431
ssS'notthatfaggotiswear'
p1074
(dp1075
g97
S'changing nick to probablykai'
p1076
sg99
F1312620021.3800001
sg100
I31
sg101
I709
ssS'exxodium_'
p1077
(dp1078
g277
S'quitting with: Quit: Leaving'
p1079
sg279
F1315907287.8529999
sg280
I79
sg281
I1902
ssS'adk'
p1080
(dp1081
g32
S'speaking in #necrolounge'
p1082
sg34
F1316396053.6370001
sg35
I6212
sg36
I218998
ssS'crayboff'
p1083
(dp1084
g83
S'speaking in #boats'
p1085
sg85
F1314491279.312
sg86
I1795
sg87
I58781
ssS'bure1'
p1086
(dp1087
g212
S'joining #TRSpam'
p1088
sg214
F1314081175.3280001
sg215
I66
sg216
I1884
ssS'tf|afk'
p1089
(dp1090
g166
S'quitting with: Ping timeout: 121 seconds'
p1091
sg168
F1304742399.806
sg169
I37
sg170
I1368
ssS'ducky'
p1092
(dp1093
g883
S'parting #bots for: Leaving'
p1094
sg885
F1306107985.5190001
sg886
I25
sg887
I900
ssS'mjf25'
p1095
(dp1096
g412
S'quitting with: Quit: Make it idiot proof and someone will make a better idiot.'
p1097
sg414
F1307847138.2550001
sg415
I11
sg416
I275
ssS'coonhoot'
p1098
(dp1099
g18
S'quitting with: Ping timeout: 121 seconds'
p1100
sg20
F1311540068.1889999
sg21
I616
sg22
I16193
ssS'krusty'
p1101
(dp1102
g32
S'quitting with: Client exited'
p1103
sg34
F1316394281.744
sg35
I1898
sg36
I88959
ssS'protoboy'
p1104
(dp1105
g52
S'joining #uespwiki'
p1106
sg54
F1316400654.99
sg55
I56
sg56
I1868
ssS'aifarrah'
p1107
(dp1108
g32
S'quitting with: Quit: http://www.mibbit.com ajax IRC Client'
p1109
sg34
F1316218485.7550001
sg35
I15
sg36
I131
ssS'eugenekay'
p1110
(dp1111
g237
S'speaking in #necrolounge'
p1112
sg239
F1316400854.503
sg240
I6384
sg241
I218526
ssS'hallfiry'
p1113
(dp1114
g386
S'quitting with: Quit: http://www.mibbit.com ajax IRC Client'
p1115
sg388
F1300997237.092
sg389
I54
sg390
I2374
ssS'tooly_'
p1116
(dp1117
g284
S'speaking in #bots'
p1118
sg286
F1314487431.7190001
sg287
I60
sg288
I2772
ssS'kizc'
p1119
(dp1120
g494
S'quitting with: Quit: Hard work pays off in the future, laziness pays off now'
p1121
sg496
F1316368333.1400001
sg497
I186
sg498
I11578
ssS'jakash3'
p1122
(dp1123
g66
S'quitting with: Quit: Leaving'
p1124
sg68
F1314506518.4860001
sg69
I305
sg70
I8901
ssS'dlarsh'
p1125
(dp1126
g205
S'quitting with: Quit: Off Dealing With the Real World'
p1127
sg207
F1315267121.0150001
sg208
I196
sg209
I11350
ssS'desdemona'
p1128
(dp1129
g11
S'quitting with: Quit: '
p1130
sg13
F1315973871.059
sg14
I9584
sg15
I207255
ssS'levelfourtyfour'
p1131
(dp1132
g11
S'quitting with: Client exited'
p1133
sg13
F1295491094.0439999
sg14
I33
sg15
I1067
ssS'neutron'
p1134
(dp1135
g298
S'quitting with: Ping timeout: 121 seconds'
p1136
sg300
F1305005538.609
sg301
I176
sg302
I3911
ssS'ryn|tf2'
p1137
(dp1138
g146
S'changing nick to Ryn238'
p1139
sg148
F1312422271.8900001
sg149
I49
sg150
I713
ssS'majic'
p1140
(dp1141
g66
S'changing nick to Paprikachu'
p1142
sg68
F1315348621.3770001
sg69
I450
sg70
I14829
ssS'nameless'
p1143
(dp1144
g32
S'speaking in #boats'
p1145
sg34
F1316399523.563
sg35
I5895
sg36
I174904
ssS'karjala_s29'
p1146
(dp1147
g66
S'quitting with: Ping timeout: 121 seconds'
p1148
sg68
F1305784069.5369999
sg69
I39
sg70
I2210
ssS'monique'
p1149
(dp1150
g227
S'parting #bots'
p1151
sg229
F1297811512.961
sg230
I44
sg231
I570
ssS'lupin_'
p1152
(dp1153
g614
S'changing nick to Lupin'
p1154
sg616
F1314485305.753
sg617
I31
sg618
I453
ssS'mjf_'
p1155
(dp1156
g198
S'quitting with: Ping timeout'
p1157
sg200
F1307398950.5710001
sg201
I112
sg202
I2751
ssS'paskos'
p1158
(dp1159
g340
S'changing nick to PASKO'
p1160
sg342
F1304468846.704
sg343
I102
sg344
I3033
ssS'salck'
p1161
(dp1162
g314
S'changing nick to slack'
p1163
sg316
F1298330234.5380001
sg317
I27
sg318
I414
ssS'pr3fatum'
p1164
(dp1165
g820
S'joining #boats'
p1166
sg822
F1315833665.184
sg823
I31
sg824
I948
ssS'i'
(dp1167
g83
S'changing nick to Xhu'
p1168
sg85
F1316184929.8829999
sg86
I33
sg87
I857
ssS'atry|'
p1169
(dp1170
g83
S'changing nick to Atreus'
p1171
sg85
F1316230171.1960001
sg86
I14
sg87
I176
ssS'hannerz_'
p1172
(dp1173
g314
S'quitting with: Quit: leaving'
p1174
sg316
F1305496060.8770001
sg317
I60
sg318
I1393
ssS'speady'
p1175
(dp1176
g32
S'quitting'
p1177
sg34
F1316040843.704
sg35
I15
sg36
I551
ssS'skah'
p1178
(dp1179
g83
S'quitting with: Quit: http://www.mibbit.com ajax IRC Client'
p1180
sg85
F1306912090.6489999
sg86
I49
sg87
I1090
ssS'newton'
p1181
(dp1182
g166
S'speaking in #devart'
p1183
sg168
F1316191765.6860001
sg169
I1054
sg170
I23088
ssS'kingtarquin'
p1184
(dp1185
g110
S'speaking in #internet'
p1186
sg112
F1315957657.8759999
sg113
I517
sg114
I20246
ssS'prokchip'
p1187
(dp1188
g284
S'getting kicked from #boats by nameless for: nameless'
p1189
sg286
F1313644089.0829999
sg287
I110
sg288
I2868
ssS'xes'
p1190
(dp1191
g412
S'quitting with: Quit: Leaving'
p1192
sg414
F1307921333.352
sg415
I15
sg416
I467
ssS'guestlounger'
p1193
(dp1194
g205
S'quitting with: Quit: http://www.mibbit.com ajax IRC Client'
p1195
sg207
F1307457544.7179999
sg208
I82
sg209
I2206
ssS'tf|vet'
p1196
(dp1197
g566
S'speaking in #TRSpam'
p1198
sg568
F1314502314.1229999
sg569
I13
sg570
I539
ssS'skynette'
p1199
(dp1200
g654
S'speaking in #boats'
p1201
sg656
F1316391091.9419999
sg657
I228
sg658
I11443
ssS'tf|sleep'
p1202
(dp1203
g212
S'changing nick to TF|'
p1204
sg214
F1315940485.3399999
sg215
I31
sg216
I1445
ssS'alexandr1'
p1205
(dp1206
g836
S'joining #uespwiki'
p1207
sg838
F1311705513.0869999
sg839
I21
sg840
I1177
ssS'lupin'
p1208
(dp1209
g32
S'quitting with: Quit: Man who run behind car get exhausted'
p1210
sg34
F1316392585.675
sg35
I10043
sg36
I223923
ssS'adzbe'
p1211
(dp1212
g97
S'changing nick to abzde'
p1213
sg99
F1312411002.0450001
sg100
I59
sg101
I1317
ssS'sp00kz'
p1214
(dp1215
g146
S'changing nick from sp00kd'
p1216
sg148
F1315834020.082
sg149
I833
sg150
I16795
ssS'adk__'
p1217
(dp1218
S'action'
p1219
S'quitting with: Quit: Best thing about killing hookers is the make-up sex'
p1220
sS'secs'
p1221
F1316246671.9979999
sS'lines'
p1222
I15
sS'chars'
p1223
I1117
ssS'ikoru'
p1224
(dp1225
g284
S'quitting with: Quit: http://www.mibbit.com ajax IRC Client'
p1226
sg286
F1313706550.194
sg287
I32
sg288
I2206
ssS'sannse'
p1227
(dp1228
g237
S'quitting with: Ping timeout: 260 seconds'
p1229
sg239
F1316325763.155
sg240
I1658
sg241
I61525
ssS'atry|away'
p1230
(dp1231
g32
S'changing nick to Atreus'
p1232
sg34
F1316367786.4219999
sg35
I530
sg36
I15143
ssS'gregoryn'
p1233
(dp1234
g166
S'joining #bots'
p1235
sg168
F1316390719.835
sg169
I295
sg170
I8818
ssS'vincentvega'
p1236
(dp1237
g42
S'quitting with: Client exited'
p1238
sg44
F1302375857.948
sg45
I62
sg46
I1925
ssS'nappz'
p1239
(dp1240
g52
S'quitting with: Ping timeout: 121 seconds'
p1241
sg54
F1296360168.474
sg55
I18
sg56
I1284
ssS'shadow'
p1242
(dp1243
g396
S'parting #devart'
p1244
sg398
F1312996026.4330001
sg399
I36
sg400
I385
ssS'wakko214'
p1245
(dp1246
S'action'
p1247
S'quitting with: Client Quit'
p1248
sS'secs'
p1249
F1303680493.9519999
sS'lines'
p1250
I102
sS'chars'
p1251
I1929
ssS'adk_'
p1252
(dp1253
g191
S'speaking in #necrolounge'
p1254
sg193
F1316396301.4119999
sg194
I95
sg195
I3730
ssS'kaminoyouni'
p1255
(dp1256
g146
S'joining #uespwiki'
p1257
sg148
F1310791980.941
sg149
I50
sg150
I2783
ssS'dogfart'
p1258
(dp1259
g52
S'changing nick to dogfort'
p1260
sg54
F1295914524.6960001
sg55
I11
sg56
I311
ssS'patrick'
p1261
(dp1262
g284
S'quitting with: Quit: Leaving'
p1263
sg286
F1315278246.4760001
sg287
I56
sg288
I1409
ssS'katrie'
p1264
(dp1265
g97
S'joining #boats'
p1266
sg99
F1316163096.3570001
sg100
I17
sg101
I266
ssS'sanity'
p1267
(dp1268
g11
S'quitting with: Quit: '
p1269
sg13
F1315537853.323
sg14
I69
sg15
I977
ssS'kai_'
p1270
(dp1271
g166
S'quitting with: Killed (NickServ (GHOST command used by nameless!root@mindjail.subluminal.net))'
p1272
sg168
F1311657003.217
sg169
I1029
sg170
I24280
ssS'eugenek'
p1273
(dp1274
g191
S'changing nick to EugeneKay'
p1275
sg193
F1313671021.8329999
sg194
I72
sg195
I2409
ssS'webs'
p1276
(dp1277
g110
S'quitting with: Quit: leaving'
p1278
sg112
F1312633792.0190001
sg113
I194
sg114
I5039
ssS'eugenepants'
p1279
(dp1280
g961
S'changing nick to EugeneSomething'
p1281
sg963
F1315578640.5539999
sg964
I25
sg965
I799
ssS'fallout10mm_'
p1282
(dp1283
g90
S'joining #necrolounge'
p1284
sg92
F1314252937.8380001
sg93
I11
sg94
I403
ssS'taros'
p1285
(dp1286
g117
S'speaking in #internet'
p1287
sg119
F1315336256.5280001
sg120
I51
sg121
I1316
ssS'blanket_'
p1288
(dp1289
g83
S'changing nick to Tek|Durpa'
p1290
sg85
F1304312062.2360001
sg86
I19
sg87
I639
ssS'lissa'
p1291
(dp1292
g586
S'quitting with: Connection reset by peer'
p1293
sg588
F1315544292.1040001
sg589
I1156
sg590
I33042
ssS'alu'
p1294
(dp1295
g277
S'quitting with: Client exited'
p1296
sg279
F1298601924.125
sg280
I133
sg281
I6897
ssS'lidyaamilya'
p1297
(dp1298
g528
S'quitting with: G-Lined'
p1299
sg530
F1307104996.905
sg531
I11
sg532
I407
ssS'foo'
p1300
(dp1301
g212
S'quitting with: Quit: foo'
p1302
sg214
F1314506512.2679999
sg215
I76
sg216
I2634
ssS'dead_beef'
p1303
(dp1304
g205
S'parting #devart for: bye'
p1305
sg207
F1296527377.299
sg208
I17
sg209
I634
ssS'bure'
p1306
(dp1307
g32
S'speaking in #TRSpam'
p1308
sg34
F1316395393.845
sg35
I1524
sg36
I39244
ssS'locutus'
p1309
(dp1310
g4
S'quitting with: Quit: Leaving'
p1311
sg6
F1303087956.8099999
sg7
I94
sg8
I2224
ssS'ferman'
p1312
(dp1313
g277
S'speaking in #necrolounge'
p1314
sg279
F1316390444.029
sg280
I245
sg281
I5558
ssS'dayes'
p1315
(dp1316
g32
S'quitting with: Ping timeout'
p1317
sg34
F1316157353.0599999
sg35
I2740
sg36
I77719
ssS'adamlogan'
p1318
(dp1319
g198
S'quitting with: Quit: Leaving.'
p1320
sg200
F1309644972.5699999
sg201
I128
sg202
I4824
ssS'sari'
p1321
(dp1322
g83
S'joining #uespwiki'
p1323
sg85
F1316395791.194
sg86
I19
sg87
I1145
ssS'racoon'
p1324
(dp1325
g66
S'quitting with: Client exited'
p1326
sg68
F1298853250.9749999
sg69
I62
sg70
I1648
ssS'llamasniper'
p1327
(dp1328
g494
S'quitting with: Ping timeout'
p1329
sg496
F1314477914.2750001
sg497
I33
sg498
I701
ssS'lilmisschaoss'
p1330
(dp1331
g227
S'speaking in #boats'
p1332
sg229
F1302062334.349
sg230
I23
sg231
I574
ssS'snuggleknight'
p1333
(dp1334
g237
S'quitting with: Quit: Some folks are wise, and some otherwise.'
p1335
sg239
F1313903802.6340001
sg240
I542
sg241
I25634
ssS'napout'
p1336
(dp1337
g198
S'changing nick to Fallout10mm'
p1338
sg200
F1301544867.6919999
sg201
I13
sg202
I193
ssS'stonr'
p1339
(dp1340
g386
S'quitting'
p1341
sg388
F1302852345.701
sg389
I18
sg390
I627
ssS'where'
p1342
(dp1343
g32
S'quitting with: Ping timeout: 121 seconds'
p1344
sg34
F1316379667.908
sg35
I1024
sg36
I18575
ssS'eintein'
p1345
(dp1346
g566
S'speaking in #boats'
p1347
sg568
F1316396881.069
sg569
I164
sg570
I2379
ssS'duke0807'
p1348
(dp1349
g83
S'quitting with: Client exited'
p1350
sg85
F1304536942.9979999
sg86
I20
sg87
I914
ssS'lilmisschaos'
p1351
(dp1352
g32
S'speaking in #boats'
p1353
sg34
F1316156684.6210001
sg35
I1469
sg36
I41894
ssS'des|cello'
p1354
(dp1355
g205
S'changing nick to Desdemona'
p1356
sg207
F1309998219.773
sg208
I12
sg209
I315
ssS'des|dnd'
p1357
(dp1358
g139
S'changing nick to Desdemona'
p1359
sg141
F1313244974.3440001
sg142
I13
sg143
I298
ssS'agentp214'
p1360
(dp1361
g586
S'quitting with: Remote host closed the connection'
p1362
sg588
F1315618216.381
sg589
I177
sg590
I3440
ssS'tekbot'
p1363
(dp1364
g32
S'speaking in #necrolounge'
p1365
sg34
F1316393484.2420001
sg35
I160
sg36
I2748
ssS'you_'
p1366
(dp1367
g97
S'changing nick to You'
p1368
sg99
F1312396954.1659999
sg100
I11
sg101
I256
ssS'ares'
p1369
(dp1370
g212
S'speaking in #boats'
p1371
sg214
F1315807264.342
sg215
I180
sg216
I5625
ssS'anti|athair'
p1372
(dp1373
g191
S'quitting with: Quit: Anti|Athair'
p1374
sg193
F1305424378.941
sg194
I18
sg195
I467
ssS'psychon'
p1375
(dp1376
S'action'
p1377
S'quitting with: Ping timeout: 121 seconds'
p1378
sS'secs'
p1379
F1316384212.6199999
sS'lines'
p1380
I27
sS'chars'
p1381
I1569
ssS'adward|ipod'
p1382
(dp1383
g528
S'joining #necrolounge'
p1384
sg530
F1316214685.8429999
sg531
I34
sg532
I658
ssS'maasd'
p1385
(dp1386
g52
S'quitting with: Quit: When the chips are down, well, the buffalo is empty'
p1387
sg54
F1299052755.1199999
sg55
I280
sg56
I12987
ssS'cyadora'
p1388
(dp1389
g330
S'quitting with: Quit: Never put off until tomorrow something you can pay to have done faster.'
p1390
sg332
F1316396607.207
sg333
I123
sg334
I2244
ssS'drakno'
p1391
(dp1392
g314
S'quitting with: Client exited'
p1393
sg316
F1297661064.244
sg317
I40
sg318
I913
ssS'tonymec'
p1394
(dp1395
g25
S'joining #devart'
p1396
sg27
F1316367823.2639999
sg28
I12
sg29
I373
ssS'anonyscamp'
p1397
(dp1398
g42
S'quitting with: Quit: Ex-Chat'
p1399
sg44
F1302385214.0710001
sg45
I13
sg46
I593
ssS'anti|mvc3'
p1400
(dp1401
g330
S'changing nick to Anti'
p1402
sg332
F1302660141.717
sg333
I39
sg334
I1278
ssS'rush'
p1403
(dp1404
g52
S'speaking in #uespwiki'
p1405
sg54
F1299040210.4289999
sg55
I19
sg56
I671
ssS'slamsteve'
p1406
(dp1407
g25
S'quitting with: Quit: SlamSteve'
p1408
sg27
F1305157564.835
sg28
I15
sg29
I380
ssS'maggo'
p1409
(dp1410
g156
S'quitting with: Ping timeout: 121 seconds'
p1411
sg158
F1316388765.52
sg159
I13
sg160
I633
ssS'hvalek'
p1412
(dp1413
g314
S'changing nick to Guest65427'
p1414
sg316
F1298603173.4419999
sg317
I413
sg318
I6000
ssS'bucket'
p1415
(dp1416
g32
S'joining #bots'
p1417
sg34
F1316139701.9590001
sg35
I443
sg36
I24222
ssS'godcheese|work'
p1418
(dp1419
g4
S'quitting with: Ping timeout: 260 seconds'
p1420
sg6
F1315688060.345
sg7
I43
sg8
I2313
ssS'aeven'
p1421
(dp1422
g314
S'parting #TRSpam'
p1423
sg316
F1304851152.1110001
sg317
I16
sg318
I362
ssS'dritz'
p1424
(dp1425
g166
S'speaking in #boats'
p1426
sg168
F1316391107.5190001
sg169
I5116
sg170
I221922
ssS'static'
p1427
(dp1428
g314
S'parting #uespwiki'
p1429
sg316
F1299407862.342
sg317
I132
sg318
I3510
ssS'fallout|persona4'
p1430
(dp1431
g284
S'changing nick to Fallout10mm'
p1432
sg286
F1313801092.2190001
sg287
I20
sg288
I625
ssS'ad'
p1433
(dp1434
g83
S'quitting with: Ping timeout'
p1435
sg85
F1304406562.1059999
sg86
I21
sg87
I393
ssS'greentard'
p1436
(dp1437
g412
S'quitting with: Ping timeout: 121 seconds'
p1438
sg414
F1307689529.618
sg415
I52
sg416
I6962
ssS'wakkowarn'
p1439
(dp1440
g66
S'quitting with: Remote host closed the connection'
p1441
sg68
F1301451107.2249999
sg69
I339
sg70
I3754
ssS'abzde'
p1442
(dp1443
g32
S'speaking in #boats'
p1444
sg34
F1316399212.372
sg35
I4667
sg36
I92463
ssS'saberuk'
p1445
(dp1446
g59
S'speaking in #internet'
p1447
sg61
F1316174882.3299999
sg62
I74
sg63
I2159
ssS'joah'
p1448
(dp1449
g83
S'quitting with: Quit: night'
p1450
sg85
F1316147379.704
sg86
I51
sg87
I647
ssS'emoboy64|dinner'
p1451
(dp1452
g386
S'changing nick to Emoboy64'
p1453
sg388
F1300995759.859
sg389
I11
sg390
I233
ssS'ev'
p1454
(dp1455
g314
S'joining #devart'
p1456
sg316
F1315513225.3329999
sg317
I345
sg318
I9515
ssS'lissasleep'
p1457
(dp1458
g340
S'speaking in #necrolounge'
p1459
sg342
F1303851820.1800001
sg343
I11
sg344
I315
ssS'hisdem'
p1460
(dp1461
g76
S'quitting with: Quit: Textual IRC Client: http://www.textualapp.com/'
p1462
sg78
F1314468927.612
sg79
I199
sg80
I4234
ssS'chaos95'
p1463
(dp1464
g32
S'speaking in #boats'
p1465
sg34
F1316145320.733
sg35
I1187
sg36
I49142
ssS'shannon'
p1466
(dp1467
g11
S'quitting with: Quit: ChatZilla 0.9.86 [Firefox 3.6.13/20101203075014]'
p1468
sg13
F1295738413.194
sg14
I41
sg15
I1598
ssS'sporks'
p1469
(dp1470
g166
S'joining #Equilibrium'
p1471
sg168
F1316241226.0699999
sg169
I20
sg170
I780
ssS'randomtime'
p1472
(dp1473
g32
S'changing nick to RansomTime'
p1474
sg34
F1316282415.8699999
sg35
I23
sg36
I560
ssS'you'
p1475
(dp1476
g11
S'joining #boats'
p1477
sg13
F1315833664.9200001
sg14
I5136
sg15
I172890
ssS'higurashi'
p1478
(dp1479
g205
S'quitting with: Quit: All the world is yours to keep~ All you have to do is walk with me~'
p1480
sg207
F1316386916.454
sg208
I22
sg209
I702
ssS'mirrepp_'
p1481
(dp1482
g166
S'joining #devart'
p1483
sg168
F1316369301.973
sg169
I606
sg170
I18263
ssS'hellow'
p1484
(dp1485
g466
S'quitting with: Ping timeout'
p1486
sg468
F1315506477.253
sg469
I28
sg470
I600
ssS'why'
p1487
(dp1488
g386
S'quitting with: Quit: Leaving'
p1489
sg388
F1316367374.9579999
sg389
I28
sg390
I568
ssS'kindari'
p1490
(dp1491
g205
S'speaking in #necrolounge'
p1492
sg207
F1316397676.609
sg208
I3466
sg209
I140844
ssS'mjf5'
p1493
(dp1494
g867
S'changing nick to mjf'
p1495
sg869
F1307409588.6110001
sg870
I80
sg871
I2415
ssS'pasko|naked'
p1496
(dp1497
g251
S'changing nick to pasko'
p1498
sg253
F1303968275.747
sg254
I49
sg255
I1257
ssS'samsmart'
p1499
(dp1500
g32
S'speaking in #necrolounge'
p1501
sg34
F1316395369.803
sg35
I4717
sg36
I130256
ssS'db9`'
p1502
(dp1503
g867
S'changing nick to db9'
p1504
sg869
F1307501640.408
sg870
I55
sg871
I1426
ssS'exxodium'
p1505
(dp1506
g205
S'speaking in #necrolounge'
p1507
sg207
F1316393691.7590001
sg208
I3304
sg209
I110710
ssS'v3nd3tta`'
p1508
(dp1509
g59
S'quitting with: Quit: I HJACK /QUIT :D'
p1510
sg61
F1316363929.589
sg62
I20
sg63
I1316
ssS'adam'
p1511
(dp1512
g340
S'changing nick to Adward'
p1513
sg342
F1303749183.97
sg343
I126
sg344
I1992
ss.