(dp1
S'consumer_secret'
p2
S'oWGAIjA6ITDBU2KcaWsSuMECjbUQneZICu9pwvQqNz8'
p3
sS'access_key'
p4
S'79578212-jSDLLf5dYbUuXdpgOUnwfX2rpLRJ7HDrH5eu5h1hH'
p5
sS'consumer_key'
p6
S'gR73QXTi0gmVrB3vu5YMA'
p7
sS'access_secret'
p8
S'VdPithq4YaX0bid8CDNjRorkDDf9JeC8YZz3baY34E'
p9
s.